                                      1 ;--------------------------------------------------------
                                      2 ; File Created by SDCC : free open source ISO C Compiler 
                                      3 ; Version 4.3.2 #14228 (MINGW64)
                                      4 ;--------------------------------------------------------
                                      5 	.module explorationmode
                                      6 	.optsdcc -msm83
                                      7 	
                                      8 ;--------------------------------------------------------
                                      9 ; Public variables in this module
                                     10 ;--------------------------------------------------------
                                     11 	.globl _manage_asteroid
                                     12 	.globl _to_screen
                                     13 	.globl _do_gameover
                                     14 	.globl _do_explosion
                                     15 	.globl _gameobjects
                                     16 	.globl _sprites_reset
                                     17 	.globl _hide
                                     18 	.globl _show
                                     19 	.globl _setPalette
                                     20 	.globl _isOnScreen
                                     21 	.globl _update_palette
                                     22 	.globl _create_palette
                                     23 	.globl _move
                                     24 	.globl _setFrame
                                     25 	.globl _sprite_init
                                     26 	.globl _set_bkg_palette
                                     27 	.globl _abs
                                     28 	.globl _rand
                                     29 	.globl _set_bkg_tiles
                                     30 	.globl _set_bkg_data
                                     31 	.globl _mid_screen
                                     32 	.globl _gameoverGraphic
                                     33 	.globl _explosionGraphic
                                     34 	.globl _asteroidGraphic
                                     35 	.globl _shipGraphic
                                     36 	.globl _photonGraphic
                                     37 	.globl _explosion
                                     38 	.globl _saturnGraphic
                                     39 	.globl _asteroid
                                     40 	.globl _photon
                                     41 	.globl _space_pallette
                                     42 	.globl _ExplorationMode_init
                                     43 	.globl _ExplorationMode_update
                                     44 	.globl _ExplorationMode_processInput
                                     45 ;--------------------------------------------------------
                                     46 ; special function registers
                                     47 ;--------------------------------------------------------
                                     48 ;--------------------------------------------------------
                                     49 ; ram data
                                     50 ;--------------------------------------------------------
                                     51 	.area _DATA
      000000                         52 _photon::
      000000                         53 	.ds 9
      000009                         54 _asteroid::
      000009                         55 	.ds 9
      000012                         56 _saturnGraphic::
      000012                         57 	.ds 21
      000027                         58 _explosion::
      000027                         59 	.ds 9
      000030                         60 _photonGraphic::
      000030                         61 	.ds 21
      000045                         62 _shipGraphic::
      000045                         63 	.ds 21
      00005A                         64 _asteroidGraphic::
      00005A                         65 	.ds 21
      00006F                         66 _explosionGraphic::
      00006F                         67 	.ds 21
      000084                         68 _gameoverGraphic::
      000084                         69 	.ds 21
      000099                         70 _hGameOverPalette:
      000099                         71 	.ds 1
                                     72 ;--------------------------------------------------------
                                     73 ; ram data
                                     74 ;--------------------------------------------------------
                                     75 	.area _INITIALIZED
      000000                         76 _mid_screen::
      000000                         77 	.ds 4
                                     78 ;--------------------------------------------------------
                                     79 ; absolute external ram data
                                     80 ;--------------------------------------------------------
                                     81 	.area _DABS (ABS)
                                     82 ;--------------------------------------------------------
                                     83 ; global & static initialisations
                                     84 ;--------------------------------------------------------
                                     85 	.area _HOME
                                     86 	.area _GSINIT
                                     87 	.area _GSFINAL
                                     88 	.area _GSINIT
                                     89 ;--------------------------------------------------------
                                     90 ; Home
                                     91 ;--------------------------------------------------------
                                     92 	.area _HOME
                                     93 	.area _HOME
                                     94 ;--------------------------------------------------------
                                     95 ; code
                                     96 ;--------------------------------------------------------
                                     97 	.area _CODE
                                     98 ;..\modes\explorationmode.c:38: void do_explosion(int world_x, int world_y) {
                                     99 ;	---------------------------------
                                    100 ; Function do_explosion
                                    101 ; ---------------------------------
      000000                        102 _do_explosion::
      000000 D5               [16]  103 	push	de
                                    104 ;..\modes\explorationmode.c:39: explosion.isAlive = true;
      000001 21r2Br00         [12]  105 	ld	hl, #(_explosion + 4)
      000004 36 01            [12]  106 	ld	(hl), #0x01
                                    107 ;..\modes\explorationmode.c:40: explosion.world.x = world_x;
      000006 11r27r00         [12]  108 	ld	de, #_explosion
      000009 F8 00            [12]  109 	ldhl	sp,	#0
      00000B 2A               [ 8]  110 	ld	a, (hl+)
      00000C 12               [ 8]  111 	ld	(de), a
      00000D 13               [ 8]  112 	inc	de
      00000E 7E               [ 8]  113 	ld	a, (hl)
      00000F 12               [ 8]  114 	ld	(de), a
                                    115 ;..\modes\explorationmode.c:41: explosion.world.y = world_y;
      000010 21r29r00         [12]  116 	ld	hl, #(_explosion + 2)
      000013 71               [ 8]  117 	ld	(hl), c
      000014 23               [ 8]  118 	inc	hl
      000015 70               [ 8]  119 	ld	(hl), b
                                    120 ;..\modes\explorationmode.c:42: show(&explosionGraphic);
      000016 11r6Fr00         [12]  121 	ld	de, #_explosionGraphic
      000019 33               [ 8]  122 	inc	sp
      00001A 33               [ 8]  123 	inc	sp
      00001B C3r00r00         [16]  124 	jp	_show
                                    125 ;..\modes\explorationmode.c:43: }
      00001E 33               [ 8]  126 	inc	sp
      00001F 33               [ 8]  127 	inc	sp
      000020 C9               [16]  128 	ret
      000021                        129 _space_pallette:
      000021 00 00                  130 	.dw #0x0000
      000023 08 21                  131 	.dw #0x2108
      000025 C0 20                  132 	.dw #0x20c0
      000027 24 00                  133 	.dw #0x0024
                                    134 ;..\modes\explorationmode.c:45: void do_gameover(struct GameObject* ship) {
                                    135 ;	---------------------------------
                                    136 ; Function do_gameover
                                    137 ; ---------------------------------
      000029                        138 _do_gameover::
                                    139 ;..\modes\explorationmode.c:46: move(&gameoverGraphic, 70, 84);
      000029 D5               [16]  140 	push	de
      00002A 01 54 00         [12]  141 	ld	bc, #0x0054
      00002D C5               [16]  142 	push	bc
      00002E 01 46 00         [12]  143 	ld	bc, #0x0046
      000031 11r84r00         [12]  144 	ld	de, #_gameoverGraphic
      000034 CDr00r00         [24]  145 	call	_move
      000037 11r84r00         [12]  146 	ld	de, #_gameoverGraphic
      00003A CDr00r00         [24]  147 	call	_show
      00003D D1               [12]  148 	pop	de
                                    149 ;..\modes\explorationmode.c:48: ship->isAlive = false;
      00003E 13               [ 8]  150 	inc	de
      00003F 13               [ 8]  151 	inc	de
      000040 13               [ 8]  152 	inc	de
      000041 13               [ 8]  153 	inc	de
      000042 AF               [ 4]  154 	xor	a, a
      000043 12               [ 8]  155 	ld	(de), a
                                    156 ;..\modes\explorationmode.c:49: hide(&shipGraphic);
      000044 11r45r00         [12]  157 	ld	de, #_shipGraphic
                                    158 ;..\modes\explorationmode.c:50: }
      000047 C3r00r00         [16]  159 	jp	_hide
                                    160 ;..\modes\explorationmode.c:52: struct Vector to_screen(struct Vector* ship, struct Vector* object) {
                                    161 ;	---------------------------------
                                    162 ; Function to_screen
                                    163 ; ---------------------------------
      00004A                        164 _to_screen::
      00004A E8 F8            [16]  165 	add	sp, #-8
      00004C F8 06            [12]  166 	ldhl	sp,	#6
      00004E 7B               [ 4]  167 	ld	a, e
      00004F 22               [ 8]  168 	ld	(hl+), a
      000050 72               [ 8]  169 	ld	(hl), d
      000051 F8 04            [12]  170 	ldhl	sp,	#4
      000053 79               [ 4]  171 	ld	a, c
      000054 22               [ 8]  172 	ld	(hl+), a
                                    173 ;..\modes\explorationmode.c:54: result.x = object->x - ship->x + mid_screen.width;
      000055 78               [ 4]  174 	ld	a, b
      000056 32               [ 8]  175 	ld	(hl-), a
      000057 2A               [ 8]  176 	ld	a, (hl+)
      000058 5F               [ 4]  177 	ld	e, a
      000059 2A               [ 8]  178 	ld	a, (hl+)
      00005A 57               [ 4]  179 	ld	d, a
      00005B 1A               [ 8]  180 	ld	a, (de)
      00005C 4F               [ 4]  181 	ld	c, a
      00005D 13               [ 8]  182 	inc	de
      00005E 1A               [ 8]  183 	ld	a, (de)
      00005F 47               [ 4]  184 	ld	b, a
      000060 2A               [ 8]  185 	ld	a, (hl+)
      000061 5F               [ 4]  186 	ld	e, a
      000062 56               [ 8]  187 	ld	d, (hl)
      000063 1A               [ 8]  188 	ld	a, (de)
      000064 6F               [ 4]  189 	ld	l, a
                                    190 ;	spillPairReg hl
                                    191 ;	spillPairReg hl
      000065 13               [ 8]  192 	inc	de
      000066 1A               [ 8]  193 	ld	a, (de)
      000067 67               [ 4]  194 	ld	h, a
                                    195 ;	spillPairReg hl
                                    196 ;	spillPairReg hl
      000068 79               [ 4]  197 	ld	a, c
      000069 95               [ 4]  198 	sub	a, l
      00006A 4F               [ 4]  199 	ld	c, a
      00006B 78               [ 4]  200 	ld	a, b
      00006C 9C               [ 4]  201 	sbc	a, h
      00006D 47               [ 4]  202 	ld	b, a
      00006E 21r00r00         [12]  203 	ld	hl, #_mid_screen
      000071 2A               [ 8]  204 	ld	a,	(hl+)
      000072 66               [ 8]  205 	ld	h, (hl)
                                    206 ;	spillPairReg hl
      000073 6F               [ 4]  207 	ld	l, a
                                    208 ;	spillPairReg hl
                                    209 ;	spillPairReg hl
      000074 09               [ 8]  210 	add	hl, bc
      000075 4D               [ 4]  211 	ld	c, l
      000076 44               [ 4]  212 	ld	b, h
      000077 33               [ 8]  213 	inc	sp
      000078 33               [ 8]  214 	inc	sp
      000079 C5               [16]  215 	push	bc
                                    216 ;..\modes\explorationmode.c:55: result.y = object->y - ship->y + mid_screen.height;
      00007A F8 04            [12]  217 	ldhl	sp,	#4
      00007C 2A               [ 8]  218 	ld	a, (hl+)
      00007D 66               [ 8]  219 	ld	h, (hl)
                                    220 ;	spillPairReg hl
                                    221 ;	spillPairReg hl
      00007E 6F               [ 4]  222 	ld	l, a
                                    223 ;	spillPairReg hl
                                    224 ;	spillPairReg hl
      00007F 23               [ 8]  225 	inc	hl
      000080 23               [ 8]  226 	inc	hl
      000081 2A               [ 8]  227 	ld	a, (hl+)
      000082 4F               [ 4]  228 	ld	c, a
      000083 46               [ 8]  229 	ld	b, (hl)
      000084 F8 06            [12]  230 	ldhl	sp,	#6
      000086 2A               [ 8]  231 	ld	a, (hl+)
      000087 66               [ 8]  232 	ld	h, (hl)
                                    233 ;	spillPairReg hl
                                    234 ;	spillPairReg hl
      000088 6F               [ 4]  235 	ld	l, a
                                    236 ;	spillPairReg hl
                                    237 ;	spillPairReg hl
      000089 23               [ 8]  238 	inc	hl
      00008A 23               [ 8]  239 	inc	hl
      00008B 2A               [ 8]  240 	ld	a,	(hl+)
      00008C 66               [ 8]  241 	ld	h, (hl)
                                    242 ;	spillPairReg hl
      00008D 6F               [ 4]  243 	ld	l, a
                                    244 ;	spillPairReg hl
                                    245 ;	spillPairReg hl
      00008E 79               [ 4]  246 	ld	a, c
      00008F 95               [ 4]  247 	sub	a, l
      000090 4F               [ 4]  248 	ld	c, a
      000091 78               [ 4]  249 	ld	a, b
      000092 9C               [ 4]  250 	sbc	a, h
      000093 47               [ 4]  251 	ld	b, a
      000094 21r02r00         [12]  252 	ld	hl, #(_mid_screen + 2)
      000097 2A               [ 8]  253 	ld	a,	(hl+)
      000098 66               [ 8]  254 	ld	h, (hl)
                                    255 ;	spillPairReg hl
      000099 6F               [ 4]  256 	ld	l, a
                                    257 ;	spillPairReg hl
                                    258 ;	spillPairReg hl
      00009A 09               [ 8]  259 	add	hl, bc
      00009B 4D               [ 4]  260 	ld	c, l
      00009C 44               [ 4]  261 	ld	b, h
      00009D F8 02            [12]  262 	ldhl	sp,	#2
      00009F 79               [ 4]  263 	ld	a, c
      0000A0 22               [ 8]  264 	ld	(hl+), a
      0000A1 70               [ 8]  265 	ld	(hl), b
                                    266 ;..\modes\explorationmode.c:56: return result;
      0000A2 F8 0A            [12]  267 	ldhl	sp,	#10
      0000A4 2A               [ 8]  268 	ld	a, (hl+)
      0000A5 4F               [ 4]  269 	ld	c, a
      0000A6 46               [ 8]  270 	ld	b, (hl)
      0000A7 F8 00            [12]  271 	ldhl	sp,	#0
      0000A9 2A               [ 8]  272 	ld	a, (hl+)
      0000AA 02               [ 8]  273 	ld	(bc), a
      0000AB 03               [ 8]  274 	inc	bc
      0000AC 2A               [ 8]  275 	ld	a, (hl+)
      0000AD 02               [ 8]  276 	ld	(bc), a
      0000AE 03               [ 8]  277 	inc	bc
      0000AF 2A               [ 8]  278 	ld	a, (hl+)
      0000B0 02               [ 8]  279 	ld	(bc), a
      0000B1 03               [ 8]  280 	inc	bc
      0000B2 7E               [ 8]  281 	ld	a, (hl)
      0000B3 02               [ 8]  282 	ld	(bc), a
                                    283 ;..\modes\explorationmode.c:57: }
      0000B4 E8 08            [16]  284 	add	sp, #8
      0000B6 E1               [12]  285 	pop	hl
      0000B7 F1               [12]  286 	pop	af
      0000B8 E9               [ 4]  287 	jp	(hl)
                                    288 ;..\modes\explorationmode.c:59: void manage_asteroid(struct GameObject* ship) {
                                    289 ;	---------------------------------
                                    290 ; Function manage_asteroid
                                    291 ; ---------------------------------
      0000B9                        292 _manage_asteroid::
      0000B9 E8 F8            [16]  293 	add	sp, #-8
      0000BB F8 02            [12]  294 	ldhl	sp,	#2
      0000BD 7B               [ 4]  295 	ld	a, e
      0000BE 22               [ 8]  296 	ld	(hl+), a
      0000BF 72               [ 8]  297 	ld	(hl), d
                                    298 ;..\modes\explorationmode.c:60: if(asteroid.isAlive == false){
      0000C0 21r0Dr00         [12]  299 	ld	hl, #(_asteroid + 4)
      0000C3 4E               [ 8]  300 	ld	c, (hl)
                                    301 ;..\modes\explorationmode.c:71: asteroid.world.y = ship->world.y - randy;
      0000C4 F8 02            [12]  302 	ldhl	sp,#2
      0000C6 2A               [ 8]  303 	ld	a, (hl+)
      0000C7 5F               [ 4]  304 	ld	e, a
      0000C8 56               [ 8]  305 	ld	d, (hl)
      0000C9 21 02 00         [12]  306 	ld	hl, #0x0002
      0000CC 19               [ 8]  307 	add	hl, de
      0000CD 33               [ 8]  308 	inc	sp
      0000CE 33               [ 8]  309 	inc	sp
      0000CF E5               [16]  310 	push	hl
                                    311 ;..\modes\explorationmode.c:72: if(asteroid.world.x < ship->world.x)asteroid.vector.x = 1;
                                    312 ;..\modes\explorationmode.c:74: if(asteroid.world.y < ship->world.y)asteroid.vector.y = 1;
                                    313 ;..\modes\explorationmode.c:60: if(asteroid.isAlive == false){
      0000D0 79               [ 4]  314 	ld	a, c
      0000D1 B7               [ 4]  315 	or	a, a
      0000D2 C2r95r02         [16]  316 	jp	NZ, 00130$
                                    317 ;..\modes\explorationmode.c:61: byte rando = rand();
      0000D5 CDr00r00         [24]  318 	call	_rand
                                    319 ;..\modes\explorationmode.c:62: if(rando > 254) {
      0000D8 3E FE            [ 8]  320 	ld	a, #0xfe
      0000DA 93               [ 4]  321 	sub	a, e
      0000DB D2rA9r05         [16]  322 	jp	NC, 00132$
                                    323 ;..\modes\explorationmode.c:63: asteroid.isAlive = true;
      0000DE 21r0Dr00         [12]  324 	ld	hl, #(_asteroid + 4)
      0000E1 36 01            [12]  325 	ld	(hl), #0x01
                                    326 ;..\modes\explorationmode.c:64: int randx = (int)rand();
      0000E3 CDr00r00         [24]  327 	call	_rand
      0000E6 F8 04            [12]  328 	ldhl	sp,	#4
      0000E8 7B               [ 4]  329 	ld	a, e
      0000E9 22               [ 8]  330 	ld	(hl+), a
      0000EA 36 00            [12]  331 	ld	(hl), #0x00
                                    332 ;..\modes\explorationmode.c:65: int randy = (int)rand();
      0000EC CDr00r00         [24]  333 	call	_rand
      0000EF F8 06            [12]  334 	ldhl	sp,	#6
      0000F1 7B               [ 4]  335 	ld	a, e
      0000F2 22               [ 8]  336 	ld	(hl+), a
      0000F3 36 00            [12]  337 	ld	(hl), #0x00
                                    338 ;..\modes\explorationmode.c:66: if(randx < 100)randx += 100; //make sure the asteroid is position at least 100 away
      0000F5 F8 04            [12]  339 	ldhl	sp,	#4
      0000F7 2A               [ 8]  340 	ld	a, (hl+)
      0000F8 D6 64            [ 8]  341 	sub	a, #0x64
      0000FA 7E               [ 8]  342 	ld	a, (hl)
      0000FB DE 00            [ 8]  343 	sbc	a, #0x00
      0000FD 56               [ 8]  344 	ld	d, (hl)
      0000FE 3E 00            [ 8]  345 	ld	a, #0x00
      000100 CB 7F            [ 8]  346 	bit	7,a
      000102 28 07            [12]  347 	jr	Z, 00303$
      000104 CB 7A            [ 8]  348 	bit	7, d
      000106 20 08            [12]  349 	jr	NZ, 00304$
      000108 BF               [ 4]  350 	cp	a, a
      000109 18 05            [12]  351 	jr	00304$
      00010B                        352 00303$:
      00010B CB 7A            [ 8]  353 	bit	7, d
      00010D 28 01            [12]  354 	jr	Z, 00304$
      00010F 37               [ 4]  355 	scf
      000110                        356 00304$:
      000110 30 13            [12]  357 	jr	NC, 00102$
      000112 F8 04            [12]  358 	ldhl	sp,#4
      000114 2A               [ 8]  359 	ld	a, (hl+)
      000115 5F               [ 4]  360 	ld	e, a
      000116 56               [ 8]  361 	ld	d, (hl)
      000117 21 64 00         [12]  362 	ld	hl, #0x0064
      00011A 19               [ 8]  363 	add	hl, de
      00011B E5               [16]  364 	push	hl
      00011C 7D               [ 4]  365 	ld	a, l
      00011D F8 06            [12]  366 	ldhl	sp,	#6
      00011F 77               [ 8]  367 	ld	(hl), a
      000120 E1               [12]  368 	pop	hl
      000121 7C               [ 4]  369 	ld	a, h
      000122 F8 05            [12]  370 	ldhl	sp,	#5
      000124 77               [ 8]  371 	ld	(hl), a
      000125                        372 00102$:
                                    373 ;..\modes\explorationmode.c:67: if(randy < 100)randy += 100;
      000125 F8 06            [12]  374 	ldhl	sp,	#6
      000127 2A               [ 8]  375 	ld	a, (hl+)
      000128 D6 64            [ 8]  376 	sub	a, #0x64
      00012A 7E               [ 8]  377 	ld	a, (hl)
      00012B DE 00            [ 8]  378 	sbc	a, #0x00
      00012D 56               [ 8]  379 	ld	d, (hl)
      00012E 3E 00            [ 8]  380 	ld	a, #0x00
      000130 CB 7F            [ 8]  381 	bit	7,a
      000132 28 07            [12]  382 	jr	Z, 00305$
      000134 CB 7A            [ 8]  383 	bit	7, d
      000136 20 08            [12]  384 	jr	NZ, 00306$
      000138 BF               [ 4]  385 	cp	a, a
      000139 18 05            [12]  386 	jr	00306$
      00013B                        387 00305$:
      00013B CB 7A            [ 8]  388 	bit	7, d
      00013D 28 01            [12]  389 	jr	Z, 00306$
      00013F 37               [ 4]  390 	scf
      000140                        391 00306$:
      000140 30 13            [12]  392 	jr	NC, 00104$
      000142 F8 06            [12]  393 	ldhl	sp,#6
      000144 2A               [ 8]  394 	ld	a, (hl+)
      000145 5F               [ 4]  395 	ld	e, a
      000146 56               [ 8]  396 	ld	d, (hl)
      000147 21 64 00         [12]  397 	ld	hl, #0x0064
      00014A 19               [ 8]  398 	add	hl, de
      00014B E5               [16]  399 	push	hl
      00014C 7D               [ 4]  400 	ld	a, l
      00014D F8 08            [12]  401 	ldhl	sp,	#8
      00014F 77               [ 8]  402 	ld	(hl), a
      000150 E1               [12]  403 	pop	hl
      000151 7C               [ 4]  404 	ld	a, h
      000152 F8 07            [12]  405 	ldhl	sp,	#7
      000154 77               [ 8]  406 	ld	(hl), a
      000155                        407 00104$:
                                    408 ;..\modes\explorationmode.c:68: if(randx % 2 == 0)randx = -randx; //50% of the time switch the sign so it comes from both sides
      000155 01 02 00         [12]  409 	ld	bc, #0x0002
      000158 F8 04            [12]  410 	ldhl	sp,	#4
      00015A 5E               [ 8]  411 	ld	e, (hl)
      00015B 16 00            [ 8]  412 	ld	d, #0x00
      00015D CDr00r00         [24]  413 	call	__modsint
      000160 78               [ 4]  414 	ld	a, b
      000161 B1               [ 4]  415 	or	a, c
      000162 20 11            [12]  416 	jr	NZ, 00106$
      000164 11 00 00         [12]  417 	ld	de, #0x0000
      000167 F8 04            [12]  418 	ldhl	sp,	#4
      000169 2A               [ 8]  419 	ld	a,	(hl+)
      00016A 66               [ 8]  420 	ld	h, (hl)
      00016B 6F               [ 4]  421 	ld	l, a
      00016C 7B               [ 4]  422 	ld	a, e
      00016D 95               [ 4]  423 	sub	a, l
      00016E 5F               [ 4]  424 	ld	e, a
      00016F 7A               [ 4]  425 	ld	a, d
      000170 9C               [ 4]  426 	sbc	a, h
      000171 F8 05            [12]  427 	ldhl	sp,	#5
      000173 32               [ 8]  428 	ld	(hl-), a
      000174 73               [ 8]  429 	ld	(hl), e
      000175                        430 00106$:
                                    431 ;..\modes\explorationmode.c:69: if(randy % 2 == 0)randy = -randy;
      000175 01 02 00         [12]  432 	ld	bc, #0x0002
      000178 F8 06            [12]  433 	ldhl	sp,	#6
      00017A 5E               [ 8]  434 	ld	e, (hl)
      00017B 16 00            [ 8]  435 	ld	d, #0x00
      00017D CDr00r00         [24]  436 	call	__modsint
      000180 78               [ 4]  437 	ld	a, b
      000181 B1               [ 4]  438 	or	a, c
      000182 20 11            [12]  439 	jr	NZ, 00108$
      000184 11 00 00         [12]  440 	ld	de, #0x0000
      000187 F8 06            [12]  441 	ldhl	sp,	#6
      000189 2A               [ 8]  442 	ld	a,	(hl+)
      00018A 66               [ 8]  443 	ld	h, (hl)
      00018B 6F               [ 4]  444 	ld	l, a
      00018C 7B               [ 4]  445 	ld	a, e
      00018D 95               [ 4]  446 	sub	a, l
      00018E 5F               [ 4]  447 	ld	e, a
      00018F 7A               [ 4]  448 	ld	a, d
      000190 9C               [ 4]  449 	sbc	a, h
      000191 F8 07            [12]  450 	ldhl	sp,	#7
      000193 32               [ 8]  451 	ld	(hl-), a
      000194 73               [ 8]  452 	ld	(hl), e
      000195                        453 00108$:
                                    454 ;..\modes\explorationmode.c:70: asteroid.world.x = ship->world.x - randx;
      000195 F8 02            [12]  455 	ldhl	sp,#2
      000197 2A               [ 8]  456 	ld	a, (hl+)
      000198 5F               [ 4]  457 	ld	e, a
      000199 2A               [ 8]  458 	ld	a, (hl+)
      00019A 57               [ 4]  459 	ld	d, a
      00019B 1A               [ 8]  460 	ld	a, (de)
      00019C 4F               [ 4]  461 	ld	c, a
      00019D 13               [ 8]  462 	inc	de
      00019E 1A               [ 8]  463 	ld	a, (de)
      00019F 47               [ 4]  464 	ld	b, a
      0001A0 2A               [ 8]  465 	ld	a, (hl+)
      0001A1 5F               [ 4]  466 	ld	e, a
      0001A2 56               [ 8]  467 	ld	d, (hl)
      0001A3 79               [ 4]  468 	ld	a, c
      0001A4 93               [ 4]  469 	sub	a, e
      0001A5 5F               [ 4]  470 	ld	e, a
      0001A6 78               [ 4]  471 	ld	a, b
      0001A7 9A               [ 4]  472 	sbc	a, d
      0001A8 47               [ 4]  473 	ld	b, a
      0001A9 7B               [ 4]  474 	ld	a, e
      0001AA 21r09r00         [12]  475 	ld	hl, #_asteroid
      0001AD 22               [ 8]  476 	ld	(hl+), a
      0001AE 70               [ 8]  477 	ld	(hl), b
                                    478 ;..\modes\explorationmode.c:71: asteroid.world.y = ship->world.y - randy;
      0001AF D1               [12]  479 	pop	de
      0001B0 D5               [16]  480 	push	de
      0001B1 1A               [ 8]  481 	ld	a, (de)
      0001B2 4F               [ 4]  482 	ld	c, a
      0001B3 13               [ 8]  483 	inc	de
      0001B4 1A               [ 8]  484 	ld	a, (de)
      0001B5 47               [ 4]  485 	ld	b, a
      0001B6 F8 06            [12]  486 	ldhl	sp,#6
      0001B8 2A               [ 8]  487 	ld	a, (hl+)
      0001B9 5F               [ 4]  488 	ld	e, a
      0001BA 56               [ 8]  489 	ld	d, (hl)
      0001BB 79               [ 4]  490 	ld	a, c
      0001BC 93               [ 4]  491 	sub	a, e
      0001BD 5F               [ 4]  492 	ld	e, a
      0001BE 78               [ 4]  493 	ld	a, b
      0001BF 9A               [ 4]  494 	sbc	a, d
      0001C0 47               [ 4]  495 	ld	b, a
      0001C1 7B               [ 4]  496 	ld	a, e
      0001C2 21r0Br00         [12]  497 	ld	hl, #(_asteroid + 2)
      0001C5 22               [ 8]  498 	ld	(hl+), a
      0001C6 70               [ 8]  499 	ld	(hl), b
                                    500 ;..\modes\explorationmode.c:72: if(asteroid.world.x < ship->world.x)asteroid.vector.x = 1;
      0001C7 21r09r00         [12]  501 	ld	hl, #_asteroid
      0001CA 2A               [ 8]  502 	ld	a, (hl+)
      0001CB 4F               [ 4]  503 	ld	c, a
      0001CC 46               [ 8]  504 	ld	b, (hl)
      0001CD F8 02            [12]  505 	ldhl	sp,#2
      0001CF 2A               [ 8]  506 	ld	a, (hl+)
      0001D0 5F               [ 4]  507 	ld	e, a
      0001D1 56               [ 8]  508 	ld	d, (hl)
      0001D2 1A               [ 8]  509 	ld	a, (de)
      0001D3 6F               [ 4]  510 	ld	l, a
                                    511 ;	spillPairReg hl
                                    512 ;	spillPairReg hl
      0001D4 13               [ 8]  513 	inc	de
      0001D5 1A               [ 8]  514 	ld	a, (de)
      0001D6 67               [ 4]  515 	ld	h, a
                                    516 ;	spillPairReg hl
                                    517 ;	spillPairReg hl
      0001D7 5C               [ 4]  518 	ld	e, h
      0001D8 50               [ 4]  519 	ld	d, b
      0001D9 79               [ 4]  520 	ld	a, c
      0001DA 95               [ 4]  521 	sub	a, l
      0001DB 78               [ 4]  522 	ld	a, b
      0001DC 9C               [ 4]  523 	sbc	a, h
      0001DD CB 7B            [ 8]  524 	bit	7, e
      0001DF 28 07            [12]  525 	jr	Z, 00307$
      0001E1 CB 7A            [ 8]  526 	bit	7, d
      0001E3 20 08            [12]  527 	jr	NZ, 00308$
      0001E5 BF               [ 4]  528 	cp	a, a
      0001E6 18 05            [12]  529 	jr	00308$
      0001E8                        530 00307$:
      0001E8 CB 7A            [ 8]  531 	bit	7, d
      0001EA 28 01            [12]  532 	jr	Z, 00308$
      0001EC 37               [ 4]  533 	scf
      0001ED                        534 00308$:
      0001ED 30 0A            [12]  535 	jr	NC, 00110$
      0001EF 21r0Er00         [12]  536 	ld	hl, #(_asteroid + 5)
      0001F2 3E 01            [ 8]  537 	ld	a, #0x01
      0001F4 22               [ 8]  538 	ld	(hl+), a
      0001F5 36 00            [12]  539 	ld	(hl), #0x00
      0001F7 18 08            [12]  540 	jr	00111$
      0001F9                        541 00110$:
                                    542 ;..\modes\explorationmode.c:73: else asteroid.vector.x = -1;
      0001F9 21r0Er00         [12]  543 	ld	hl, #(_asteroid + 5)
      0001FC 3E FF            [ 8]  544 	ld	a, #0xff
      0001FE 22               [ 8]  545 	ld	(hl+), a
      0001FF 36 FF            [12]  546 	ld	(hl), #0xff
      000201                        547 00111$:
                                    548 ;..\modes\explorationmode.c:74: if(asteroid.world.y < ship->world.y)asteroid.vector.y = 1;
      000201 21r0Br00         [12]  549 	ld	hl, #(_asteroid + 2)
      000204 2A               [ 8]  550 	ld	a, (hl+)
      000205 4F               [ 4]  551 	ld	c, a
      000206 46               [ 8]  552 	ld	b, (hl)
      000207 D1               [12]  553 	pop	de
      000208 D5               [16]  554 	push	de
      000209 1A               [ 8]  555 	ld	a, (de)
      00020A 6F               [ 4]  556 	ld	l, a
                                    557 ;	spillPairReg hl
                                    558 ;	spillPairReg hl
      00020B 13               [ 8]  559 	inc	de
      00020C 1A               [ 8]  560 	ld	a, (de)
      00020D 67               [ 4]  561 	ld	h, a
                                    562 ;	spillPairReg hl
                                    563 ;	spillPairReg hl
      00020E 5C               [ 4]  564 	ld	e, h
      00020F 50               [ 4]  565 	ld	d, b
      000210 79               [ 4]  566 	ld	a, c
      000211 95               [ 4]  567 	sub	a, l
      000212 78               [ 4]  568 	ld	a, b
      000213 9C               [ 4]  569 	sbc	a, h
      000214 CB 7B            [ 8]  570 	bit	7, e
      000216 28 07            [12]  571 	jr	Z, 00309$
      000218 CB 7A            [ 8]  572 	bit	7, d
      00021A 20 08            [12]  573 	jr	NZ, 00310$
      00021C BF               [ 4]  574 	cp	a, a
      00021D 18 05            [12]  575 	jr	00310$
      00021F                        576 00309$:
      00021F CB 7A            [ 8]  577 	bit	7, d
      000221 28 01            [12]  578 	jr	Z, 00310$
      000223 37               [ 4]  579 	scf
      000224                        580 00310$:
      000224 30 0A            [12]  581 	jr	NC, 00113$
      000226 21r10r00         [12]  582 	ld	hl, #(_asteroid + 7)
      000229 3E 01            [ 8]  583 	ld	a, #0x01
      00022B 22               [ 8]  584 	ld	(hl+), a
      00022C 36 00            [12]  585 	ld	(hl), #0x00
      00022E 18 08            [12]  586 	jr	00114$
      000230                        587 00113$:
                                    588 ;..\modes\explorationmode.c:75: else asteroid.vector.y = -1;
      000230 21r10r00         [12]  589 	ld	hl, #(_asteroid + 7)
      000233 3E FF            [ 8]  590 	ld	a, #0xff
      000235 22               [ 8]  591 	ld	(hl+), a
      000236 36 FF            [12]  592 	ld	(hl), #0xff
      000238                        593 00114$:
                                    594 ;..\modes\explorationmode.c:76: int screen_x = asteroid.world.x - ship->world.x + mid_screen.width;
      000238 21r09r00         [12]  595 	ld	hl, #_asteroid
      00023B 2A               [ 8]  596 	ld	a, (hl+)
      00023C 4F               [ 4]  597 	ld	c, a
      00023D 46               [ 8]  598 	ld	b, (hl)
      00023E F8 02            [12]  599 	ldhl	sp,#2
      000240 2A               [ 8]  600 	ld	a, (hl+)
      000241 5F               [ 4]  601 	ld	e, a
      000242 56               [ 8]  602 	ld	d, (hl)
      000243 1A               [ 8]  603 	ld	a, (de)
      000244 6F               [ 4]  604 	ld	l, a
                                    605 ;	spillPairReg hl
                                    606 ;	spillPairReg hl
      000245 13               [ 8]  607 	inc	de
      000246 1A               [ 8]  608 	ld	a, (de)
      000247 67               [ 4]  609 	ld	h, a
                                    610 ;	spillPairReg hl
                                    611 ;	spillPairReg hl
      000248 79               [ 4]  612 	ld	a, c
      000249 95               [ 4]  613 	sub	a, l
      00024A 4F               [ 4]  614 	ld	c, a
      00024B 78               [ 4]  615 	ld	a, b
      00024C 9C               [ 4]  616 	sbc	a, h
      00024D 47               [ 4]  617 	ld	b, a
      00024E 11r00r00         [12]  618 	ld	de, #_mid_screen
      000251 1A               [ 8]  619 	ld	a, (de)
      000252 F8 04            [12]  620 	ldhl	sp,	#4
      000254 22               [ 8]  621 	ld	(hl+), a
      000255 13               [ 8]  622 	inc	de
      000256 1A               [ 8]  623 	ld	a, (de)
      000257 32               [ 8]  624 	ld	(hl-), a
      000258 2A               [ 8]  625 	ld	a,	(hl+)
      000259 66               [ 8]  626 	ld	h, (hl)
      00025A 6F               [ 4]  627 	ld	l, a
      00025B 09               [ 8]  628 	add	hl, bc
      00025C E5               [16]  629 	push	hl
      00025D 7D               [ 4]  630 	ld	a, l
      00025E F8 08            [12]  631 	ldhl	sp,	#8
      000260 77               [ 8]  632 	ld	(hl), a
      000261 E1               [12]  633 	pop	hl
      000262 7C               [ 4]  634 	ld	a, h
      000263 F8 07            [12]  635 	ldhl	sp,	#7
      000265 77               [ 8]  636 	ld	(hl), a
                                    637 ;..\modes\explorationmode.c:77: int screen_y = asteroid.world.y - ship->world.y + mid_screen.height;
      000266 21r0Br00         [12]  638 	ld	hl, #(_asteroid + 2)
      000269 2A               [ 8]  639 	ld	a, (hl+)
      00026A 4F               [ 4]  640 	ld	c, a
      00026B 46               [ 8]  641 	ld	b, (hl)
      00026C D1               [12]  642 	pop	de
      00026D D5               [16]  643 	push	de
      00026E 1A               [ 8]  644 	ld	a, (de)
      00026F 6F               [ 4]  645 	ld	l, a
                                    646 ;	spillPairReg hl
                                    647 ;	spillPairReg hl
      000270 13               [ 8]  648 	inc	de
      000271 1A               [ 8]  649 	ld	a, (de)
      000272 67               [ 4]  650 	ld	h, a
                                    651 ;	spillPairReg hl
                                    652 ;	spillPairReg hl
      000273 79               [ 4]  653 	ld	a, c
      000274 95               [ 4]  654 	sub	a, l
      000275 4F               [ 4]  655 	ld	c, a
      000276 78               [ 4]  656 	ld	a, b
      000277 9C               [ 4]  657 	sbc	a, h
      000278 47               [ 4]  658 	ld	b, a
      000279 21r02r00         [12]  659 	ld	hl, #(_mid_screen + 2)
      00027C 2A               [ 8]  660 	ld	a,	(hl+)
      00027D 66               [ 8]  661 	ld	h, (hl)
                                    662 ;	spillPairReg hl
      00027E 6F               [ 4]  663 	ld	l, a
                                    664 ;	spillPairReg hl
                                    665 ;	spillPairReg hl
      00027F 09               [ 8]  666 	add	hl, bc
                                    667 ;..\modes\explorationmode.c:78: show(&asteroidGraphic);
      000280 E5               [16]  668 	push	hl
      000281 11r5Ar00         [12]  669 	ld	de, #_asteroidGraphic
      000284 CDr00r00         [24]  670 	call	_show
      000287 F8 08            [12]  671 	ldhl	sp,	#8
      000289 2A               [ 8]  672 	ld	a, (hl+)
      00028A 4F               [ 4]  673 	ld	c, a
      00028B 46               [ 8]  674 	ld	b, (hl)
      00028C 11r5Ar00         [12]  675 	ld	de, #_asteroidGraphic
      00028F CDr00r00         [24]  676 	call	_move
      000292 C3rA9r05         [16]  677 	jp	00132$
      000295                        678 00130$:
                                    679 ;..\modes\explorationmode.c:82: asteroid.world.x += asteroid.vector.x;
      000295 21r09r00         [12]  680 	ld	hl, #_asteroid
      000298 2A               [ 8]  681 	ld	a, (hl+)
      000299 4F               [ 4]  682 	ld	c, a
      00029A 46               [ 8]  683 	ld	b, (hl)
      00029B 21r0Er00         [12]  684 	ld	hl, #(_asteroid + 5)
      00029E 2A               [ 8]  685 	ld	a,	(hl+)
      00029F 66               [ 8]  686 	ld	h, (hl)
                                    687 ;	spillPairReg hl
      0002A0 6F               [ 4]  688 	ld	l, a
                                    689 ;	spillPairReg hl
                                    690 ;	spillPairReg hl
      0002A1 09               [ 8]  691 	add	hl, bc
      0002A2 4D               [ 4]  692 	ld	c, l
      0002A3 44               [ 4]  693 	ld	b, h
      0002A4 21r09r00         [12]  694 	ld	hl, #_asteroid
      0002A7 79               [ 4]  695 	ld	a, c
      0002A8 22               [ 8]  696 	ld	(hl+), a
      0002A9 70               [ 8]  697 	ld	(hl), b
                                    698 ;..\modes\explorationmode.c:83: asteroid.world.y += asteroid.vector.y;
      0002AA 21r0Br00         [12]  699 	ld	hl, #(_asteroid + 2)
      0002AD 2A               [ 8]  700 	ld	a, (hl+)
      0002AE 4F               [ 4]  701 	ld	c, a
      0002AF 46               [ 8]  702 	ld	b, (hl)
      0002B0 21r10r00         [12]  703 	ld	hl, #(_asteroid + 7)
      0002B3 2A               [ 8]  704 	ld	a,	(hl+)
      0002B4 66               [ 8]  705 	ld	h, (hl)
                                    706 ;	spillPairReg hl
      0002B5 6F               [ 4]  707 	ld	l, a
                                    708 ;	spillPairReg hl
                                    709 ;	spillPairReg hl
      0002B6 09               [ 8]  710 	add	hl, bc
      0002B7 4D               [ 4]  711 	ld	c, l
      0002B8 44               [ 4]  712 	ld	b, h
      0002B9 21r0Br00         [12]  713 	ld	hl, #(_asteroid + 2)
      0002BC 79               [ 4]  714 	ld	a, c
      0002BD 22               [ 8]  715 	ld	(hl+), a
      0002BE 70               [ 8]  716 	ld	(hl), b
                                    717 ;..\modes\explorationmode.c:84: if(photon.isAlive == true && asteroid.world.x/8 == photon.world.x/8 && asteroid.world.y/8 == photon.world.y/8) {
      0002BF FAr04r00         [16]  718 	ld	a, (#(_photon + 4) + 0)
      0002C2 3D               [ 4]  719 	dec	a
      0002C3 C2rCAr03         [16]  720 	jp	NZ,00118$
      0002C6 21r09r00         [12]  721 	ld	hl, #_asteroid
      0002C9 2A               [ 8]  722 	ld	a, (hl+)
      0002CA 4F               [ 4]  723 	ld	c, a
      0002CB 46               [ 8]  724 	ld	b, (hl)
      0002CC F8 06            [12]  725 	ldhl	sp,	#6
      0002CE 79               [ 4]  726 	ld	a, c
      0002CF 22               [ 8]  727 	ld	(hl+), a
      0002D0 70               [ 8]  728 	ld	(hl), b
      0002D1 CB 78            [ 8]  729 	bit	7, b
      0002D3 28 0E            [12]  730 	jr	Z, 00134$
      0002D5 21 07 00         [12]  731 	ld	hl, #0x0007
      0002D8 09               [ 8]  732 	add	hl, bc
      0002D9 E5               [16]  733 	push	hl
      0002DA 7D               [ 4]  734 	ld	a, l
      0002DB F8 08            [12]  735 	ldhl	sp,	#8
      0002DD 77               [ 8]  736 	ld	(hl), a
      0002DE E1               [12]  737 	pop	hl
      0002DF 7C               [ 4]  738 	ld	a, h
      0002E0 F8 07            [12]  739 	ldhl	sp,	#7
      0002E2 77               [ 8]  740 	ld	(hl), a
      0002E3                        741 00134$:
      0002E3 F8 06            [12]  742 	ldhl	sp,#6
      0002E5 2A               [ 8]  743 	ld	a, (hl+)
      0002E6 4F               [ 4]  744 	ld	c, a
      0002E7 46               [ 8]  745 	ld	b, (hl)
      0002E8 CB 28            [ 8]  746 	sra	b
      0002EA CB 19            [ 8]  747 	rr	c
      0002EC CB 28            [ 8]  748 	sra	b
      0002EE CB 19            [ 8]  749 	rr	c
      0002F0 CB 28            [ 8]  750 	sra	b
      0002F2 CB 19            [ 8]  751 	rr	c
      0002F4 11r00r00         [12]  752 	ld	de, #_photon
      0002F7 1A               [ 8]  753 	ld	a, (de)
      0002F8 F8 04            [12]  754 	ldhl	sp,	#4
      0002FA 22               [ 8]  755 	ld	(hl+), a
      0002FB 13               [ 8]  756 	inc	de
      0002FC 1A               [ 8]  757 	ld	a, (de)
      0002FD 32               [ 8]  758 	ld	(hl-), a
      0002FE 2A               [ 8]  759 	ld	a, (hl+)
      0002FF 23               [ 8]  760 	inc	hl
      000300 32               [ 8]  761 	ld	(hl-), a
      000301 2A               [ 8]  762 	ld	a, (hl+)
      000302 23               [ 8]  763 	inc	hl
      000303 32               [ 8]  764 	ld	(hl-), a
      000304 2B               [ 8]  765 	dec	hl
      000305 CB 7E            [12]  766 	bit	7, (hl)
      000307 28 12            [12]  767 	jr	Z, 00135$
      000309 2B               [ 8]  768 	dec	hl
      00030A 2A               [ 8]  769 	ld	a, (hl+)
      00030B 5F               [ 4]  770 	ld	e, a
      00030C 56               [ 8]  771 	ld	d, (hl)
      00030D 21 07 00         [12]  772 	ld	hl, #0x0007
      000310 19               [ 8]  773 	add	hl, de
      000311 E5               [16]  774 	push	hl
      000312 7D               [ 4]  775 	ld	a, l
      000313 F8 08            [12]  776 	ldhl	sp,	#8
      000315 77               [ 8]  777 	ld	(hl), a
      000316 E1               [12]  778 	pop	hl
      000317 7C               [ 4]  779 	ld	a, h
      000318 F8 07            [12]  780 	ldhl	sp,	#7
      00031A 77               [ 8]  781 	ld	(hl), a
      00031B                        782 00135$:
      00031B F8 06            [12]  783 	ldhl	sp,#6
      00031D 2A               [ 8]  784 	ld	a, (hl+)
      00031E 5F               [ 4]  785 	ld	e, a
      00031F 56               [ 8]  786 	ld	d, (hl)
      000320 CB 2A            [ 8]  787 	sra	d
      000322 CB 1B            [ 8]  788 	rr	e
      000324 CB 2A            [ 8]  789 	sra	d
      000326 CB 1B            [ 8]  790 	rr	e
      000328 CB 2A            [ 8]  791 	sra	d
      00032A CB 1B            [ 8]  792 	rr	e
      00032C 7B               [ 4]  793 	ld	a, e
      00032D 91               [ 4]  794 	sub	a, c
      00032E C2rCAr03         [16]  795 	jp	NZ,00118$
      000331 7A               [ 4]  796 	ld	a, d
      000332 90               [ 4]  797 	sub	a, b
      000333 C2rCAr03         [16]  798 	jp	NZ,00118$
      000336 21r0Br00         [12]  799 	ld	hl, #(_asteroid + 2)
      000339 2A               [ 8]  800 	ld	a, (hl+)
      00033A 4F               [ 4]  801 	ld	c, a
      00033B 46               [ 8]  802 	ld	b, (hl)
      00033C F8 06            [12]  803 	ldhl	sp,	#6
      00033E 79               [ 4]  804 	ld	a, c
      00033F 22               [ 8]  805 	ld	(hl+), a
      000340 70               [ 8]  806 	ld	(hl), b
      000341 CB 78            [ 8]  807 	bit	7, b
      000343 28 0E            [12]  808 	jr	Z, 00136$
      000345 21 07 00         [12]  809 	ld	hl, #0x0007
      000348 09               [ 8]  810 	add	hl, bc
      000349 E5               [16]  811 	push	hl
      00034A 7D               [ 4]  812 	ld	a, l
      00034B F8 08            [12]  813 	ldhl	sp,	#8
      00034D 77               [ 8]  814 	ld	(hl), a
      00034E E1               [12]  815 	pop	hl
      00034F 7C               [ 4]  816 	ld	a, h
      000350 F8 07            [12]  817 	ldhl	sp,	#7
      000352 77               [ 8]  818 	ld	(hl), a
      000353                        819 00136$:
      000353 F8 06            [12]  820 	ldhl	sp,#6
      000355 2A               [ 8]  821 	ld	a, (hl+)
      000356 4F               [ 4]  822 	ld	c, a
      000357 46               [ 8]  823 	ld	b, (hl)
      000358 CB 28            [ 8]  824 	sra	b
      00035A CB 19            [ 8]  825 	rr	c
      00035C CB 28            [ 8]  826 	sra	b
      00035E CB 19            [ 8]  827 	rr	c
      000360 CB 28            [ 8]  828 	sra	b
      000362 CB 19            [ 8]  829 	rr	c
      000364 11r02r00         [12]  830 	ld	de, #(_photon + 2)
      000367 1A               [ 8]  831 	ld	a, (de)
      000368 F8 04            [12]  832 	ldhl	sp,	#4
      00036A 22               [ 8]  833 	ld	(hl+), a
      00036B 13               [ 8]  834 	inc	de
      00036C 1A               [ 8]  835 	ld	a, (de)
      00036D 32               [ 8]  836 	ld	(hl-), a
      00036E 2A               [ 8]  837 	ld	a, (hl+)
      00036F 23               [ 8]  838 	inc	hl
      000370 32               [ 8]  839 	ld	(hl-), a
      000371 2A               [ 8]  840 	ld	a, (hl+)
      000372 23               [ 8]  841 	inc	hl
      000373 32               [ 8]  842 	ld	(hl-), a
      000374 2B               [ 8]  843 	dec	hl
      000375 CB 7E            [12]  844 	bit	7, (hl)
      000377 28 12            [12]  845 	jr	Z, 00137$
      000379 2B               [ 8]  846 	dec	hl
      00037A 2A               [ 8]  847 	ld	a, (hl+)
      00037B 5F               [ 4]  848 	ld	e, a
      00037C 56               [ 8]  849 	ld	d, (hl)
      00037D 21 07 00         [12]  850 	ld	hl, #0x0007
      000380 19               [ 8]  851 	add	hl, de
      000381 E5               [16]  852 	push	hl
      000382 7D               [ 4]  853 	ld	a, l
      000383 F8 08            [12]  854 	ldhl	sp,	#8
      000385 77               [ 8]  855 	ld	(hl), a
      000386 E1               [12]  856 	pop	hl
      000387 7C               [ 4]  857 	ld	a, h
      000388 F8 07            [12]  858 	ldhl	sp,	#7
      00038A 77               [ 8]  859 	ld	(hl), a
      00038B                        860 00137$:
      00038B F8 06            [12]  861 	ldhl	sp,#6
      00038D 2A               [ 8]  862 	ld	a, (hl+)
      00038E 5F               [ 4]  863 	ld	e, a
      00038F 56               [ 8]  864 	ld	d, (hl)
      000390 CB 2A            [ 8]  865 	sra	d
      000392 CB 1B            [ 8]  866 	rr	e
      000394 CB 2A            [ 8]  867 	sra	d
      000396 CB 1B            [ 8]  868 	rr	e
      000398 CB 2A            [ 8]  869 	sra	d
      00039A CB 1B            [ 8]  870 	rr	e
      00039C 7B               [ 4]  871 	ld	a, e
      00039D 91               [ 4]  872 	sub	a, c
      00039E 20 2A            [12]  873 	jr	NZ, 00118$
      0003A0 7A               [ 4]  874 	ld	a, d
      0003A1 90               [ 4]  875 	sub	a, b
      0003A2 20 26            [12]  876 	jr	NZ, 00118$
                                    877 ;..\modes\explorationmode.c:85: asteroid.isAlive = false;
      0003A4 21r0Dr00         [12]  878 	ld	hl, #(_asteroid + 4)
      0003A7 36 00            [12]  879 	ld	(hl), #0x00
                                    880 ;..\modes\explorationmode.c:86: photon.isAlive = false;
      0003A9 21r04r00         [12]  881 	ld	hl, #(_photon + 4)
      0003AC 36 00            [12]  882 	ld	(hl), #0x00
                                    883 ;..\modes\explorationmode.c:87: hide(&asteroidGraphic);
      0003AE 11r5Ar00         [12]  884 	ld	de, #_asteroidGraphic
      0003B1 CDr00r00         [24]  885 	call	_hide
                                    886 ;..\modes\explorationmode.c:88: hide(&photonGraphic);
      0003B4 11r30r00         [12]  887 	ld	de, #_photonGraphic
      0003B7 CDr00r00         [24]  888 	call	_hide
                                    889 ;..\modes\explorationmode.c:89: do_explosion(photon.world.x, photon.world.y);
      0003BA 21r02r00         [12]  890 	ld	hl, #(_photon + 2)
      0003BD 2A               [ 8]  891 	ld	a, (hl+)
      0003BE 4F               [ 4]  892 	ld	c, a
      0003BF 46               [ 8]  893 	ld	b, (hl)
      0003C0 21r00r00         [12]  894 	ld	hl, #_photon
      0003C3 2A               [ 8]  895 	ld	a,	(hl+)
      0003C4 66               [ 8]  896 	ld	h, (hl)
                                    897 ;	spillPairReg hl
                                    898 ;	spillPairReg hl
                                    899 ;	spillPairReg hl
      0003C5 5F               [ 4]  900 	ld	e, a
      0003C6 54               [ 4]  901 	ld	d, h
      0003C7 CDr00r00         [24]  902 	call	_do_explosion
      0003CA                        903 00118$:
                                    904 ;..\modes\explorationmode.c:91: if(ship->isAlive == true && asteroid.world.x/8 == ship->world.x/8 && asteroid.world.y/8 == ship->world.y/8) {
      0003CA F8 02            [12]  905 	ldhl	sp,#2
      0003CC 2A               [ 8]  906 	ld	a, (hl+)
      0003CD 5F               [ 4]  907 	ld	e, a
      0003CE 56               [ 8]  908 	ld	d, (hl)
      0003CF 21 04 00         [12]  909 	ld	hl, #0x0004
      0003D2 19               [ 8]  910 	add	hl, de
      0003D3 4D               [ 4]  911 	ld	c, l
      0003D4 44               [ 4]  912 	ld	b, h
      0003D5 0A               [ 8]  913 	ld	a, (bc)
      0003D6 3D               [ 4]  914 	dec	a
      0003D7 C2rE1r04         [16]  915 	jp	NZ,00122$
      0003DA 21r09r00         [12]  916 	ld	hl, #_asteroid
      0003DD 2A               [ 8]  917 	ld	a, (hl+)
      0003DE 4F               [ 4]  918 	ld	c, a
      0003DF 46               [ 8]  919 	ld	b, (hl)
      0003E0 F8 06            [12]  920 	ldhl	sp,	#6
      0003E2 79               [ 4]  921 	ld	a, c
      0003E3 22               [ 8]  922 	ld	(hl+), a
      0003E4 70               [ 8]  923 	ld	(hl), b
      0003E5 CB 78            [ 8]  924 	bit	7, b
      0003E7 28 0E            [12]  925 	jr	Z, 00138$
      0003E9 21 07 00         [12]  926 	ld	hl, #0x0007
      0003EC 09               [ 8]  927 	add	hl, bc
      0003ED E5               [16]  928 	push	hl
      0003EE 7D               [ 4]  929 	ld	a, l
      0003EF F8 08            [12]  930 	ldhl	sp,	#8
      0003F1 77               [ 8]  931 	ld	(hl), a
      0003F2 E1               [12]  932 	pop	hl
      0003F3 7C               [ 4]  933 	ld	a, h
      0003F4 F8 07            [12]  934 	ldhl	sp,	#7
      0003F6 77               [ 8]  935 	ld	(hl), a
      0003F7                        936 00138$:
      0003F7 F8 06            [12]  937 	ldhl	sp,#6
      0003F9 2A               [ 8]  938 	ld	a, (hl+)
      0003FA 4F               [ 4]  939 	ld	c, a
      0003FB 46               [ 8]  940 	ld	b, (hl)
      0003FC CB 28            [ 8]  941 	sra	b
      0003FE CB 19            [ 8]  942 	rr	c
      000400 CB 28            [ 8]  943 	sra	b
      000402 CB 19            [ 8]  944 	rr	c
      000404 CB 28            [ 8]  945 	sra	b
      000406 CB 19            [ 8]  946 	rr	c
      000408 F8 02            [12]  947 	ldhl	sp,#2
      00040A 2A               [ 8]  948 	ld	a, (hl+)
      00040B 5F               [ 4]  949 	ld	e, a
      00040C 2A               [ 8]  950 	ld	a, (hl+)
      00040D 57               [ 4]  951 	ld	d, a
      00040E 1A               [ 8]  952 	ld	a, (de)
      00040F 22               [ 8]  953 	ld	(hl+), a
      000410 13               [ 8]  954 	inc	de
      000411 1A               [ 8]  955 	ld	a, (de)
      000412 32               [ 8]  956 	ld	(hl-), a
      000413 2A               [ 8]  957 	ld	a, (hl+)
      000414 23               [ 8]  958 	inc	hl
      000415 32               [ 8]  959 	ld	(hl-), a
      000416 2A               [ 8]  960 	ld	a, (hl+)
      000417 23               [ 8]  961 	inc	hl
      000418 32               [ 8]  962 	ld	(hl-), a
      000419 2B               [ 8]  963 	dec	hl
      00041A CB 7E            [12]  964 	bit	7, (hl)
      00041C 28 12            [12]  965 	jr	Z, 00139$
      00041E 2B               [ 8]  966 	dec	hl
      00041F 2A               [ 8]  967 	ld	a, (hl+)
      000420 5F               [ 4]  968 	ld	e, a
      000421 56               [ 8]  969 	ld	d, (hl)
      000422 21 07 00         [12]  970 	ld	hl, #0x0007
      000425 19               [ 8]  971 	add	hl, de
      000426 E5               [16]  972 	push	hl
      000427 7D               [ 4]  973 	ld	a, l
      000428 F8 08            [12]  974 	ldhl	sp,	#8
      00042A 77               [ 8]  975 	ld	(hl), a
      00042B E1               [12]  976 	pop	hl
      00042C 7C               [ 4]  977 	ld	a, h
      00042D F8 07            [12]  978 	ldhl	sp,	#7
      00042F 77               [ 8]  979 	ld	(hl), a
      000430                        980 00139$:
      000430 F8 06            [12]  981 	ldhl	sp,#6
      000432 2A               [ 8]  982 	ld	a, (hl+)
      000433 5F               [ 4]  983 	ld	e, a
      000434 56               [ 8]  984 	ld	d, (hl)
      000435 CB 2A            [ 8]  985 	sra	d
      000437 CB 1B            [ 8]  986 	rr	e
      000439 CB 2A            [ 8]  987 	sra	d
      00043B CB 1B            [ 8]  988 	rr	e
      00043D CB 2A            [ 8]  989 	sra	d
      00043F CB 1B            [ 8]  990 	rr	e
      000441 7B               [ 4]  991 	ld	a, e
      000442 91               [ 4]  992 	sub	a, c
      000443 C2rE1r04         [16]  993 	jp	NZ,00122$
      000446 7A               [ 4]  994 	ld	a, d
      000447 90               [ 4]  995 	sub	a, b
      000448 C2rE1r04         [16]  996 	jp	NZ,00122$
      00044B 21r0Br00         [12]  997 	ld	hl, #(_asteroid + 2)
      00044E 2A               [ 8]  998 	ld	a, (hl+)
      00044F 4F               [ 4]  999 	ld	c, a
      000450 46               [ 8] 1000 	ld	b, (hl)
      000451 F8 06            [12] 1001 	ldhl	sp,	#6
      000453 79               [ 4] 1002 	ld	a, c
      000454 22               [ 8] 1003 	ld	(hl+), a
      000455 70               [ 8] 1004 	ld	(hl), b
      000456 CB 78            [ 8] 1005 	bit	7, b
      000458 28 0E            [12] 1006 	jr	Z, 00140$
      00045A 21 07 00         [12] 1007 	ld	hl, #0x0007
      00045D 09               [ 8] 1008 	add	hl, bc
      00045E E5               [16] 1009 	push	hl
      00045F 7D               [ 4] 1010 	ld	a, l
      000460 F8 08            [12] 1011 	ldhl	sp,	#8
      000462 77               [ 8] 1012 	ld	(hl), a
      000463 E1               [12] 1013 	pop	hl
      000464 7C               [ 4] 1014 	ld	a, h
      000465 F8 07            [12] 1015 	ldhl	sp,	#7
      000467 77               [ 8] 1016 	ld	(hl), a
      000468                       1017 00140$:
      000468 F8 06            [12] 1018 	ldhl	sp,#6
      00046A 2A               [ 8] 1019 	ld	a, (hl+)
      00046B 4F               [ 4] 1020 	ld	c, a
      00046C 46               [ 8] 1021 	ld	b, (hl)
      00046D CB 28            [ 8] 1022 	sra	b
      00046F CB 19            [ 8] 1023 	rr	c
      000471 CB 28            [ 8] 1024 	sra	b
      000473 CB 19            [ 8] 1025 	rr	c
      000475 CB 28            [ 8] 1026 	sra	b
      000477 CB 19            [ 8] 1027 	rr	c
      000479 D1               [12] 1028 	pop	de
      00047A D5               [16] 1029 	push	de
      00047B 1A               [ 8] 1030 	ld	a, (de)
      00047C F8 04            [12] 1031 	ldhl	sp,	#4
      00047E 22               [ 8] 1032 	ld	(hl+), a
      00047F 13               [ 8] 1033 	inc	de
      000480 1A               [ 8] 1034 	ld	a, (de)
      000481 32               [ 8] 1035 	ld	(hl-), a
      000482 2A               [ 8] 1036 	ld	a, (hl+)
      000483 23               [ 8] 1037 	inc	hl
      000484 32               [ 8] 1038 	ld	(hl-), a
      000485 2A               [ 8] 1039 	ld	a, (hl+)
      000486 23               [ 8] 1040 	inc	hl
      000487 32               [ 8] 1041 	ld	(hl-), a
      000488 2B               [ 8] 1042 	dec	hl
      000489 CB 7E            [12] 1043 	bit	7, (hl)
      00048B 28 12            [12] 1044 	jr	Z, 00141$
      00048D 2B               [ 8] 1045 	dec	hl
      00048E 2A               [ 8] 1046 	ld	a, (hl+)
      00048F 5F               [ 4] 1047 	ld	e, a
      000490 56               [ 8] 1048 	ld	d, (hl)
      000491 21 07 00         [12] 1049 	ld	hl, #0x0007
      000494 19               [ 8] 1050 	add	hl, de
      000495 E5               [16] 1051 	push	hl
      000496 7D               [ 4] 1052 	ld	a, l
      000497 F8 08            [12] 1053 	ldhl	sp,	#8
      000499 77               [ 8] 1054 	ld	(hl), a
      00049A E1               [12] 1055 	pop	hl
      00049B 7C               [ 4] 1056 	ld	a, h
      00049C F8 07            [12] 1057 	ldhl	sp,	#7
      00049E 77               [ 8] 1058 	ld	(hl), a
      00049F                       1059 00141$:
      00049F F8 06            [12] 1060 	ldhl	sp,#6
      0004A1 2A               [ 8] 1061 	ld	a, (hl+)
      0004A2 5F               [ 4] 1062 	ld	e, a
      0004A3 56               [ 8] 1063 	ld	d, (hl)
      0004A4 CB 2A            [ 8] 1064 	sra	d
      0004A6 CB 1B            [ 8] 1065 	rr	e
      0004A8 CB 2A            [ 8] 1066 	sra	d
      0004AA CB 1B            [ 8] 1067 	rr	e
      0004AC CB 2A            [ 8] 1068 	sra	d
      0004AE CB 1B            [ 8] 1069 	rr	e
      0004B0 7B               [ 4] 1070 	ld	a, e
      0004B1 91               [ 4] 1071 	sub	a, c
      0004B2 20 2D            [12] 1072 	jr	NZ, 00122$
      0004B4 7A               [ 4] 1073 	ld	a, d
      0004B5 90               [ 4] 1074 	sub	a, b
      0004B6 20 29            [12] 1075 	jr	NZ, 00122$
                                   1076 ;..\modes\explorationmode.c:92: asteroid.isAlive = false;
      0004B8 21r0Dr00         [12] 1077 	ld	hl, #(_asteroid + 4)
      0004BB 36 00            [12] 1078 	ld	(hl), #0x00
                                   1079 ;..\modes\explorationmode.c:93: hide(&asteroidGraphic);
      0004BD 11r5Ar00         [12] 1080 	ld	de, #_asteroidGraphic
      0004C0 CDr00r00         [24] 1081 	call	_hide
                                   1082 ;..\modes\explorationmode.c:94: do_explosion(ship->world.x, ship->world.y);
      0004C3 D1               [12] 1083 	pop	de
      0004C4 D5               [16] 1084 	push	de
      0004C5 1A               [ 8] 1085 	ld	a, (de)
      0004C6 4F               [ 4] 1086 	ld	c, a
      0004C7 13               [ 8] 1087 	inc	de
      0004C8 1A               [ 8] 1088 	ld	a, (de)
      0004C9 47               [ 4] 1089 	ld	b, a
      0004CA F8 02            [12] 1090 	ldhl	sp,#2
      0004CC 2A               [ 8] 1091 	ld	a, (hl+)
      0004CD 5F               [ 4] 1092 	ld	e, a
      0004CE 56               [ 8] 1093 	ld	d, (hl)
      0004CF 1A               [ 8] 1094 	ld	a, (de)
      0004D0 6F               [ 4] 1095 	ld	l, a
                                   1096 ;	spillPairReg hl
                                   1097 ;	spillPairReg hl
      0004D1 13               [ 8] 1098 	inc	de
      0004D2 1A               [ 8] 1099 	ld	a, (de)
      0004D3 67               [ 4] 1100 	ld	h, a
                                   1101 ;	spillPairReg hl
                                   1102 ;	spillPairReg hl
      0004D4 5D               [ 4] 1103 	ld	e, l
      0004D5 54               [ 4] 1104 	ld	d, h
      0004D6 CDr00r00         [24] 1105 	call	_do_explosion
                                   1106 ;..\modes\explorationmode.c:95: do_gameover(ship);
      0004D9 F8 02            [12] 1107 	ldhl	sp,	#2
      0004DB 2A               [ 8] 1108 	ld	a, (hl+)
      0004DC 5F               [ 4] 1109 	ld	e, a
      0004DD 56               [ 8] 1110 	ld	d, (hl)
      0004DE CDr29r00         [24] 1111 	call	_do_gameover
      0004E1                       1112 00122$:
                                   1113 ;..\modes\explorationmode.c:97: if(abs(asteroid.world.x - ship->world.x) > 255 || abs(asteroid.world.y - ship->world.y) > 255) { //we're so far away, kill the asteroid
      0004E1 21r09r00         [12] 1114 	ld	hl, #_asteroid
      0004E4 2A               [ 8] 1115 	ld	a, (hl+)
      0004E5 4F               [ 4] 1116 	ld	c, a
      0004E6 46               [ 8] 1117 	ld	b, (hl)
      0004E7 F8 02            [12] 1118 	ldhl	sp,#2
      0004E9 2A               [ 8] 1119 	ld	a, (hl+)
      0004EA 5F               [ 4] 1120 	ld	e, a
      0004EB 56               [ 8] 1121 	ld	d, (hl)
      0004EC 1A               [ 8] 1122 	ld	a, (de)
      0004ED 6F               [ 4] 1123 	ld	l, a
                                   1124 ;	spillPairReg hl
                                   1125 ;	spillPairReg hl
      0004EE 13               [ 8] 1126 	inc	de
      0004EF 1A               [ 8] 1127 	ld	a, (de)
      0004F0 67               [ 4] 1128 	ld	h, a
                                   1129 ;	spillPairReg hl
                                   1130 ;	spillPairReg hl
      0004F1 79               [ 4] 1131 	ld	a, c
      0004F2 95               [ 4] 1132 	sub	a, l
      0004F3 4F               [ 4] 1133 	ld	c, a
      0004F4 78               [ 4] 1134 	ld	a, b
      0004F5 9C               [ 4] 1135 	sbc	a, h
      0004F6 47               [ 4] 1136 	ld	b, a
      0004F7 C5               [16] 1137 	push	bc
      0004F8 CDr00r00         [24] 1138 	call	_abs
      0004FB E1               [12] 1139 	pop	hl
      0004FC 4B               [ 4] 1140 	ld	c, e
      0004FD 42               [ 4] 1141 	ld	b, d
      0004FE 58               [ 4] 1142 	ld	e, b
      0004FF 16 00            [ 8] 1143 	ld	d, #0x00
      000501 3E FF            [ 8] 1144 	ld	a, #0xff
      000503 B9               [ 4] 1145 	cp	a, c
      000504 3E 00            [ 8] 1146 	ld	a, #0x00
      000506 98               [ 4] 1147 	sbc	a, b
      000507 CB 7B            [ 8] 1148 	bit	7, e
      000509 28 07            [12] 1149 	jr	Z, 00323$
      00050B CB 7A            [ 8] 1150 	bit	7, d
      00050D 20 08            [12] 1151 	jr	NZ, 00324$
      00050F BF               [ 4] 1152 	cp	a, a
      000510 18 05            [12] 1153 	jr	00324$
      000512                       1154 00323$:
      000512 CB 7A            [ 8] 1155 	bit	7, d
      000514 28 01            [12] 1156 	jr	Z, 00324$
      000516 37               [ 4] 1157 	scf
      000517                       1158 00324$:
      000517 38 35            [12] 1159 	jr	C, 00125$
      000519 21r0Br00         [12] 1160 	ld	hl, #(_asteroid + 2)
      00051C 2A               [ 8] 1161 	ld	a, (hl+)
      00051D 4F               [ 4] 1162 	ld	c, a
      00051E 46               [ 8] 1163 	ld	b, (hl)
      00051F D1               [12] 1164 	pop	de
      000520 D5               [16] 1165 	push	de
      000521 1A               [ 8] 1166 	ld	a, (de)
      000522 6F               [ 4] 1167 	ld	l, a
                                   1168 ;	spillPairReg hl
                                   1169 ;	spillPairReg hl
      000523 13               [ 8] 1170 	inc	de
      000524 1A               [ 8] 1171 	ld	a, (de)
      000525 67               [ 4] 1172 	ld	h, a
                                   1173 ;	spillPairReg hl
                                   1174 ;	spillPairReg hl
      000526 79               [ 4] 1175 	ld	a, c
      000527 95               [ 4] 1176 	sub	a, l
      000528 4F               [ 4] 1177 	ld	c, a
      000529 78               [ 4] 1178 	ld	a, b
      00052A 9C               [ 4] 1179 	sbc	a, h
      00052B 47               [ 4] 1180 	ld	b, a
      00052C C5               [16] 1181 	push	bc
      00052D CDr00r00         [24] 1182 	call	_abs
      000530 E1               [12] 1183 	pop	hl
      000531 4B               [ 4] 1184 	ld	c, e
      000532 42               [ 4] 1185 	ld	b, d
      000533 58               [ 4] 1186 	ld	e, b
      000534 16 00            [ 8] 1187 	ld	d, #0x00
      000536 3E FF            [ 8] 1188 	ld	a, #0xff
      000538 B9               [ 4] 1189 	cp	a, c
      000539 3E 00            [ 8] 1190 	ld	a, #0x00
      00053B 98               [ 4] 1191 	sbc	a, b
      00053C CB 7B            [ 8] 1192 	bit	7, e
      00053E 28 07            [12] 1193 	jr	Z, 00325$
      000540 CB 7A            [ 8] 1194 	bit	7, d
      000542 20 08            [12] 1195 	jr	NZ, 00326$
      000544 BF               [ 4] 1196 	cp	a, a
      000545 18 05            [12] 1197 	jr	00326$
      000547                       1198 00325$:
      000547 CB 7A            [ 8] 1199 	bit	7, d
      000549 28 01            [12] 1200 	jr	Z, 00326$
      00054B 37               [ 4] 1201 	scf
      00054C                       1202 00326$:
      00054C 30 07            [12] 1203 	jr	NC, 00126$
      00054E                       1204 00125$:
                                   1205 ;..\modes\explorationmode.c:98: asteroid.isAlive = false;
      00054E 21r0Dr00         [12] 1206 	ld	hl, #(_asteroid + 4)
      000551 36 00            [12] 1207 	ld	(hl), #0x00
      000553 18 54            [12] 1208 	jr	00132$
      000555                       1209 00126$:
                                   1210 ;..\modes\explorationmode.c:102: int screen_x = asteroid.world.x - ship->world.x + mid_screen.width;
      000555 21r09r00         [12] 1211 	ld	hl, #_asteroid
      000558 2A               [ 8] 1212 	ld	a, (hl+)
      000559 4F               [ 4] 1213 	ld	c, a
      00055A 46               [ 8] 1214 	ld	b, (hl)
      00055B F8 02            [12] 1215 	ldhl	sp,#2
      00055D 2A               [ 8] 1216 	ld	a, (hl+)
      00055E 5F               [ 4] 1217 	ld	e, a
      00055F 56               [ 8] 1218 	ld	d, (hl)
      000560 1A               [ 8] 1219 	ld	a, (de)
      000561 6F               [ 4] 1220 	ld	l, a
                                   1221 ;	spillPairReg hl
                                   1222 ;	spillPairReg hl
      000562 13               [ 8] 1223 	inc	de
      000563 1A               [ 8] 1224 	ld	a, (de)
      000564 67               [ 4] 1225 	ld	h, a
                                   1226 ;	spillPairReg hl
                                   1227 ;	spillPairReg hl
      000565 79               [ 4] 1228 	ld	a, c
      000566 95               [ 4] 1229 	sub	a, l
      000567 4F               [ 4] 1230 	ld	c, a
      000568 78               [ 4] 1231 	ld	a, b
      000569 9C               [ 4] 1232 	sbc	a, h
      00056A 47               [ 4] 1233 	ld	b, a
      00056B 11r00r00         [12] 1234 	ld	de, #_mid_screen
      00056E 1A               [ 8] 1235 	ld	a, (de)
      00056F F8 04            [12] 1236 	ldhl	sp,	#4
      000571 22               [ 8] 1237 	ld	(hl+), a
      000572 13               [ 8] 1238 	inc	de
      000573 1A               [ 8] 1239 	ld	a, (de)
      000574 32               [ 8] 1240 	ld	(hl-), a
      000575 2A               [ 8] 1241 	ld	a,	(hl+)
      000576 66               [ 8] 1242 	ld	h, (hl)
      000577 6F               [ 4] 1243 	ld	l, a
      000578 09               [ 8] 1244 	add	hl, bc
      000579 E5               [16] 1245 	push	hl
      00057A 7D               [ 4] 1246 	ld	a, l
      00057B F8 08            [12] 1247 	ldhl	sp,	#8
      00057D 77               [ 8] 1248 	ld	(hl), a
      00057E E1               [12] 1249 	pop	hl
      00057F 7C               [ 4] 1250 	ld	a, h
      000580 F8 07            [12] 1251 	ldhl	sp,	#7
      000582 77               [ 8] 1252 	ld	(hl), a
                                   1253 ;..\modes\explorationmode.c:103: int screen_y = asteroid.world.y - ship->world.y + mid_screen.height;
      000583 21r0Br00         [12] 1254 	ld	hl, #(_asteroid + 2)
      000586 2A               [ 8] 1255 	ld	a, (hl+)
      000587 4F               [ 4] 1256 	ld	c, a
      000588 46               [ 8] 1257 	ld	b, (hl)
      000589 D1               [12] 1258 	pop	de
      00058A D5               [16] 1259 	push	de
      00058B 1A               [ 8] 1260 	ld	a, (de)
      00058C 6F               [ 4] 1261 	ld	l, a
                                   1262 ;	spillPairReg hl
                                   1263 ;	spillPairReg hl
      00058D 13               [ 8] 1264 	inc	de
      00058E 1A               [ 8] 1265 	ld	a, (de)
      00058F 67               [ 4] 1266 	ld	h, a
                                   1267 ;	spillPairReg hl
                                   1268 ;	spillPairReg hl
      000590 79               [ 4] 1269 	ld	a, c
      000591 95               [ 4] 1270 	sub	a, l
      000592 4F               [ 4] 1271 	ld	c, a
      000593 78               [ 4] 1272 	ld	a, b
      000594 9C               [ 4] 1273 	sbc	a, h
      000595 47               [ 4] 1274 	ld	b, a
      000596 21r02r00         [12] 1275 	ld	hl, #(_mid_screen + 2)
      000599 2A               [ 8] 1276 	ld	a,	(hl+)
      00059A 66               [ 8] 1277 	ld	h, (hl)
                                   1278 ;	spillPairReg hl
      00059B 6F               [ 4] 1279 	ld	l, a
                                   1280 ;	spillPairReg hl
                                   1281 ;	spillPairReg hl
      00059C 09               [ 8] 1282 	add	hl, bc
                                   1283 ;..\modes\explorationmode.c:106: move(&asteroidGraphic, screen_x, screen_y);
      00059D E5               [16] 1284 	push	hl
      00059E F8 08            [12] 1285 	ldhl	sp,	#8
      0005A0 2A               [ 8] 1286 	ld	a, (hl+)
      0005A1 4F               [ 4] 1287 	ld	c, a
      0005A2 46               [ 8] 1288 	ld	b, (hl)
      0005A3 11r5Ar00         [12] 1289 	ld	de, #_asteroidGraphic
      0005A6 CDr00r00         [24] 1290 	call	_move
      0005A9                       1291 00132$:
                                   1292 ;..\modes\explorationmode.c:109: }
      0005A9 E8 08            [16] 1293 	add	sp, #8
      0005AB C9               [16] 1294 	ret
                                   1295 ;..\modes\explorationmode.c:111: void ExplorationMode_init(struct ExplorationMode* this) {
                                   1296 ;	---------------------------------
                                   1297 ; Function ExplorationMode_init
                                   1298 ; ---------------------------------
      0005AC                       1299 _ExplorationMode_init::
      0005AC 3B               [ 8] 1300 	dec	sp
      0005AD 4B               [ 4] 1301 	ld	c, e
      0005AE 42               [ 4] 1302 	ld	b, d
                                   1303 ;..\modes\explorationmode.c:112: SHOW_SPRITES;
      0005AF F0r00            [12] 1304 	ldh	a, (_LCDC_REG + 0)
      0005B1 F6 02            [ 8] 1305 	or	a, #0x02
      0005B3 E0r00            [12] 1306 	ldh	(_LCDC_REG + 0), a
                                   1307 ;..\modes\explorationmode.c:113: SHOW_BKG;
      0005B5 F0r00            [12] 1308 	ldh	a, (_LCDC_REG + 0)
      0005B7 F6 01            [ 8] 1309 	or	a, #0x01
      0005B9 E0r00            [12] 1310 	ldh	(_LCDC_REG + 0), a
                                   1311 ;..\modes\explorationmode.c:114: HIDE_WIN;
      0005BB F0r00            [12] 1312 	ldh	a, (_LCDC_REG + 0)
      0005BD E6 DF            [ 8] 1313 	and	a, #0xdf
      0005BF E0r00            [12] 1314 	ldh	(_LCDC_REG + 0), a
                                   1315 ;..\modes\explorationmode.c:115: sprites_reset();
      0005C1 C5               [16] 1316 	push	bc
      0005C2 CDr00r00         [24] 1317 	call	_sprites_reset
      0005C5 C1               [12] 1318 	pop	bc
                                   1319 ;..\modes\explorationmode.c:116: set_bkg_data(0, 48, space1_tile);
      0005C6 11r00r00         [12] 1320 	ld	de, #_space1_tile
      0005C9 D5               [16] 1321 	push	de
      0005CA 21 00 30         [12] 1322 	ld	hl, #0x3000
      0005CD E5               [16] 1323 	push	hl
      0005CE CDr00r00         [24] 1324 	call	_set_bkg_data
      0005D1 E8 04            [16] 1325 	add	sp, #4
                                   1326 ;..\modes\explorationmode.c:117: set_bkg_tiles(0, 0, bckground_mapWidth, bckground_mapHeight, bckground_map);
      0005D3 11r00r00         [12] 1327 	ld	de, #_bckground_map
      0005D6 D5               [16] 1328 	push	de
      0005D7 21 20 20         [12] 1329 	ld	hl, #0x2020
      0005DA E5               [16] 1330 	push	hl
      0005DB AF               [ 4] 1331 	xor	a, a
      0005DC 0F               [ 4] 1332 	rrca
      0005DD F5               [16] 1333 	push	af
      0005DE CDr00r00         [24] 1334 	call	_set_bkg_tiles
      0005E1 E8 06            [16] 1335 	add	sp, #6
                                   1336 ;..\modes\explorationmode.c:118: set_bkg_palette(0,1, space_pallette);
      0005E3 C5               [16] 1337 	push	bc
      0005E4 11r21r00         [12] 1338 	ld	de, #_space_pallette
      0005E7 D5               [16] 1339 	push	de
      0005E8 AF               [ 4] 1340 	xor	a, a
      0005E9 3C               [ 4] 1341 	inc	a
      0005EA F5               [16] 1342 	push	af
      0005EB CDr00r00         [24] 1343 	call	_set_bkg_palette
      0005EE E8 04            [16] 1344 	add	sp, #4
      0005F0 C1               [12] 1345 	pop	bc
                                   1346 ;..\modes\explorationmode.c:119: this->counter = 0;
      0005F1 69               [ 4] 1347 	ld	l, c
      0005F2 60               [ 4] 1348 	ld	h, b
      0005F3 AF               [ 4] 1349 	xor	a, a
      0005F4 22               [ 8] 1350 	ld	(hl+), a
      0005F5 77               [ 8] 1351 	ld	(hl), a
                                   1352 ;..\modes\explorationmode.c:120: byte ship_pal = create_palette(0xFFFFFF,RGB8(200,200,200),RGB8(127, 127, 127),RGB8(255, 255, 255));
      0005F6 C5               [16] 1353 	push	bc
      0005F7 11 FF 7F         [12] 1354 	ld	de, #0x7fff
      0005FA D5               [16] 1355 	push	de
      0005FB 11 EF 3D         [12] 1356 	ld	de, #0x3def
      0005FE D5               [16] 1357 	push	de
      0005FF 01 39 67         [12] 1358 	ld	bc, #0x6739
      000602 11 FF FF         [12] 1359 	ld	de, #0xffff
      000605 CDr00r00         [24] 1360 	call	_create_palette
      000608 11 1F 00         [12] 1361 	ld	de, #0x001f
      00060B D5               [16] 1362 	push	de
      00060C 11 9F 22         [12] 1363 	ld	de, #0x229f
      00060F D5               [16] 1364 	push	de
      000610 01 FF 7F         [12] 1365 	ld	bc, #0x7fff
      000613 11 00 00         [12] 1366 	ld	de, #0x0000
      000616 CDr00r00         [24] 1367 	call	_create_palette
      000619 F8 02            [12] 1368 	ldhl	sp,	#2
      00061B 77               [ 8] 1369 	ld	(hl), a
      00061C 11 20 03         [12] 1370 	ld	de, #0x0320
      00061F D5               [16] 1371 	push	de
      000620 11 80 41         [12] 1372 	ld	de, #0x4180
      000623 D5               [16] 1373 	push	de
      000624 01 C0 20         [12] 1374 	ld	bc, #0x20c0
      000627 11 00 00         [12] 1375 	ld	de, #0x0000
      00062A CDr00r00         [24] 1376 	call	_create_palette
      00062D C1               [12] 1377 	pop	bc
      00062E EAr99r00         [16] 1378 	ld	(#_hGameOverPalette),a
                                   1379 ;..\modes\explorationmode.c:125: this->exploration_objects = gameobjects(0);
      000631 69               [ 4] 1380 	ld	l, c
                                   1381 ;	spillPairReg hl
                                   1382 ;	spillPairReg hl
      000632 60               [ 4] 1383 	ld	h, b
                                   1384 ;	spillPairReg hl
                                   1385 ;	spillPairReg hl
      000633 23               [ 8] 1386 	inc	hl
      000634 23               [ 8] 1387 	inc	hl
      000635 E5               [16] 1388 	push	hl
      000636 11 00 00         [12] 1389 	ld	de, #0x0000
      000639 CDr00r00         [24] 1390 	call	_gameobjects
      00063C E1               [12] 1391 	pop	hl
      00063D 79               [ 4] 1392 	ld	a, c
      00063E 22               [ 8] 1393 	ld	(hl+), a
      00063F 70               [ 8] 1394 	ld	(hl), b
                                   1395 ;..\modes\explorationmode.c:127: sprite_init(&gameoverGraphic, gameover_tiles, RENDER_8X8, 6, 1, 1);
      000640 11 01 00         [12] 1396 	ld	de, #0x0001
      000643 D5               [16] 1397 	push	de
      000644 D5               [16] 1398 	push	de
      000645 11 06 00         [12] 1399 	ld	de, #0x0006
      000648 D5               [16] 1400 	push	de
      000649 AF               [ 4] 1401 	xor	a, a
      00064A F5               [16] 1402 	push	af
      00064B 33               [ 8] 1403 	inc	sp
      00064C 01r00r00         [12] 1404 	ld	bc, #_gameover_tiles
      00064F 11r84r00         [12] 1405 	ld	de, #_gameoverGraphic
      000652 CDr00r00         [24] 1406 	call	_sprite_init
                                   1407 ;..\modes\explorationmode.c:128: setFrame(&gameoverGraphic, 0);
      000655 01 00 00         [12] 1408 	ld	bc, #0x0000
      000658 11r84r00         [12] 1409 	ld	de, #_gameoverGraphic
      00065B CDr00r00         [24] 1410 	call	_setFrame
                                   1411 ;..\modes\explorationmode.c:129: setPalette(&gameoverGraphic, hGameOverPalette);
      00065E FAr99r00         [16] 1412 	ld	a, (#_hGameOverPalette)
      000661 11r84r00         [12] 1413 	ld	de, #_gameoverGraphic
      000664 CDr00r00         [24] 1414 	call	_setPalette
                                   1415 ;..\modes\explorationmode.c:130: move(&gameoverGraphic, 300, 300);
      000667 11 2C 01         [12] 1416 	ld	de, #0x012c
      00066A D5               [16] 1417 	push	de
      00066B 01 2C 01         [12] 1418 	ld	bc, #0x012c
      00066E 11r84r00         [12] 1419 	ld	de, #_gameoverGraphic
      000671 CDr00r00         [24] 1420 	call	_move
                                   1421 ;..\modes\explorationmode.c:131: hide(&gameoverGraphic);
      000674 11r84r00         [12] 1422 	ld	de, #_gameoverGraphic
      000677 CDr00r00         [24] 1423 	call	_hide
                                   1424 ;..\modes\explorationmode.c:133: sprite_init(&shipGraphic, enterprise_tiles, RENDER_16X16, 2, 2, 8);
      00067A 11 08 00         [12] 1425 	ld	de, #0x0008
      00067D D5               [16] 1426 	push	de
      00067E 11 02 00         [12] 1427 	ld	de, #0x0002
      000681 D5               [16] 1428 	push	de
      000682 D5               [16] 1429 	push	de
      000683 3E 01            [ 8] 1430 	ld	a, #0x01
      000685 F5               [16] 1431 	push	af
      000686 33               [ 8] 1432 	inc	sp
      000687 01r00r00         [12] 1433 	ld	bc, #_enterprise_tiles
      00068A 11r45r00         [12] 1434 	ld	de, #_shipGraphic
      00068D CDr00r00         [24] 1435 	call	_sprite_init
                                   1436 ;..\modes\explorationmode.c:134: setFrame(&shipGraphic, 0);
      000690 01 00 00         [12] 1437 	ld	bc, #0x0000
      000693 11r45r00         [12] 1438 	ld	de, #_shipGraphic
      000696 CDr00r00         [24] 1439 	call	_setFrame
                                   1440 ;..\modes\explorationmode.c:135: move(&shipGraphic, mid_screen.width, mid_screen.height);
      000699 21r02r00         [12] 1441 	ld	hl, #_mid_screen + 2
      00069C 2A               [ 8] 1442 	ld	a, (hl+)
      00069D 4F               [ 4] 1443 	ld	c, a
      00069E 46               [ 8] 1444 	ld	b, (hl)
      00069F 21r00r00         [12] 1445 	ld	hl, #_mid_screen
      0006A2 2A               [ 8] 1446 	ld	a,	(hl+)
      0006A3 66               [ 8] 1447 	ld	h, (hl)
                                   1448 ;	spillPairReg hl
      0006A4 6F               [ 4] 1449 	ld	l, a
                                   1450 ;	spillPairReg hl
                                   1451 ;	spillPairReg hl
      0006A5 C5               [16] 1452 	push	bc
      0006A6 4D               [ 4] 1453 	ld	c, l
      0006A7 44               [ 4] 1454 	ld	b, h
      0006A8 11r45r00         [12] 1455 	ld	de, #_shipGraphic
      0006AB CDr00r00         [24] 1456 	call	_move
                                   1457 ;..\modes\explorationmode.c:137: sprite_init(&saturnGraphic, saturn_tiles, RENDER_16X16, 2, 2, 1);
      0006AE 11 01 00         [12] 1458 	ld	de, #0x0001
      0006B1 D5               [16] 1459 	push	de
      0006B2 11 02 00         [12] 1460 	ld	de, #0x0002
      0006B5 D5               [16] 1461 	push	de
      0006B6 D5               [16] 1462 	push	de
      0006B7 3E 01            [ 8] 1463 	ld	a, #0x01
      0006B9 F5               [16] 1464 	push	af
      0006BA 33               [ 8] 1465 	inc	sp
      0006BB 01r00r00         [12] 1466 	ld	bc, #_saturn_tiles
      0006BE 11r12r00         [12] 1467 	ld	de, #_saturnGraphic
      0006C1 CDr00r00         [24] 1468 	call	_sprite_init
                                   1469 ;..\modes\explorationmode.c:138: setFrame(&saturnGraphic, 0);
      0006C4 01 00 00         [12] 1470 	ld	bc, #0x0000
      0006C7 11r12r00         [12] 1471 	ld	de, #_saturnGraphic
      0006CA CDr00r00         [24] 1472 	call	_setFrame
                                   1473 ;..\modes\explorationmode.c:139: setPalette(&saturnGraphic, create_palette(0, RGB8(255, 200, 200), RGB8(200, 50, 50), RGB8(255, 160, 68)));
      0006CD 11 9F 22         [12] 1474 	ld	de, #0x229f
      0006D0 D5               [16] 1475 	push	de
      0006D1 11 D9 18         [12] 1476 	ld	de, #0x18d9
      0006D4 D5               [16] 1477 	push	de
      0006D5 01 3F 67         [12] 1478 	ld	bc, #0x673f
      0006D8 11 00 00         [12] 1479 	ld	de, #0x0000
      0006DB CDr00r00         [24] 1480 	call	_create_palette
      0006DE 11r12r00         [12] 1481 	ld	de, #_saturnGraphic
      0006E1 CDr00r00         [24] 1482 	call	_setPalette
                                   1483 ;..\modes\explorationmode.c:142: photon.isAlive = false;
      0006E4 21r04r00         [12] 1484 	ld	hl, #(_photon + 4)
                                   1485 ;..\modes\explorationmode.c:143: sprite_init(&photonGraphic, photon_tiles, RENDER_8X8,  1, 1, 2);
      0006E7 11 02 00         [12] 1486 	ld	de, #0x0002
      0006EA 72               [ 8] 1487 	ld	(hl), d
      0006EB D5               [16] 1488 	push	de
      0006EC 11 01 00         [12] 1489 	ld	de, #0x0001
      0006EF D5               [16] 1490 	push	de
      0006F0 D5               [16] 1491 	push	de
      0006F1 AF               [ 4] 1492 	xor	a, a
      0006F2 F5               [16] 1493 	push	af
      0006F3 33               [ 8] 1494 	inc	sp
      0006F4 01r00r00         [12] 1495 	ld	bc, #_photon_tiles
      0006F7 11r30r00         [12] 1496 	ld	de, #_photonGraphic
      0006FA CDr00r00         [24] 1497 	call	_sprite_init
                                   1498 ;..\modes\explorationmode.c:144: setFrame(&photonGraphic, 0);
      0006FD 01 00 00         [12] 1499 	ld	bc, #0x0000
      000700 11r30r00         [12] 1500 	ld	de, #_photonGraphic
      000703 CDr00r00         [24] 1501 	call	_setFrame
                                   1502 ;..\modes\explorationmode.c:145: setPalette(&photonGraphic, fire_pallet);
      000706 F8 00            [12] 1503 	ldhl	sp,	#0
      000708 7E               [ 8] 1504 	ld	a, (hl)
      000709 11r30r00         [12] 1505 	ld	de, #_photonGraphic
      00070C CDr00r00         [24] 1506 	call	_setPalette
                                   1507 ;..\modes\explorationmode.c:146: hide(&photonGraphic);
      00070F 11r30r00         [12] 1508 	ld	de, #_photonGraphic
      000712 CDr00r00         [24] 1509 	call	_hide
                                   1510 ;..\modes\explorationmode.c:148: sprite_init(&asteroidGraphic, asteroid_tiles, RENDER_8X8, 1, 1, 4);
      000715 11 04 00         [12] 1511 	ld	de, #0x0004
      000718 D5               [16] 1512 	push	de
      000719 11 01 00         [12] 1513 	ld	de, #0x0001
      00071C D5               [16] 1514 	push	de
      00071D D5               [16] 1515 	push	de
      00071E AF               [ 4] 1516 	xor	a, a
      00071F F5               [16] 1517 	push	af
      000720 33               [ 8] 1518 	inc	sp
      000721 01r00r00         [12] 1519 	ld	bc, #_asteroid_tiles
      000724 11r5Ar00         [12] 1520 	ld	de, #_asteroidGraphic
      000727 CDr00r00         [24] 1521 	call	_sprite_init
                                   1522 ;..\modes\explorationmode.c:149: setFrame(&asteroidGraphic, 0);
      00072A 01 00 00         [12] 1523 	ld	bc, #0x0000
      00072D 11r5Ar00         [12] 1524 	ld	de, #_asteroidGraphic
      000730 CDr00r00         [24] 1525 	call	_setFrame
                                   1526 ;..\modes\explorationmode.c:150: hide(&asteroidGraphic);
      000733 11r5Ar00         [12] 1527 	ld	de, #_asteroidGraphic
      000736 CDr00r00         [24] 1528 	call	_hide
                                   1529 ;..\modes\explorationmode.c:152: setPalette(&asteroidGraphic, create_palette(0, RGB8(223, 223, 223), RGB8(128, 128, 128), RGB8(64, 64, 64)));
      000739 11 08 21         [12] 1530 	ld	de, #0x2108
      00073C D5               [16] 1531 	push	de
      00073D 11 10 42         [12] 1532 	ld	de, #0x4210
      000740 D5               [16] 1533 	push	de
      000741 01 7B 6F         [12] 1534 	ld	bc, #0x6f7b
      000744 11 00 00         [12] 1535 	ld	de, #0x0000
      000747 CDr00r00         [24] 1536 	call	_create_palette
      00074A 11r5Ar00         [12] 1537 	ld	de, #_asteroidGraphic
      00074D CDr00r00         [24] 1538 	call	_setPalette
                                   1539 ;..\modes\explorationmode.c:153: asteroid.isAlive = false;
      000750 21r0Dr00         [12] 1540 	ld	hl, #(_asteroid + 4)
                                   1541 ;..\modes\explorationmode.c:155: sprite_init(&explosionGraphic, explosion_tiles, RENDER_16X16, 2, 2, 4);
      000753 11 04 00         [12] 1542 	ld	de, #0x0004
      000756 72               [ 8] 1543 	ld	(hl), d
      000757 D5               [16] 1544 	push	de
      000758 11 02 00         [12] 1545 	ld	de, #0x0002
      00075B D5               [16] 1546 	push	de
      00075C D5               [16] 1547 	push	de
      00075D 3E 01            [ 8] 1548 	ld	a, #0x01
      00075F F5               [16] 1549 	push	af
      000760 33               [ 8] 1550 	inc	sp
      000761 01r00r00         [12] 1551 	ld	bc, #_explosion_tiles
      000764 11r6Fr00         [12] 1552 	ld	de, #_explosionGraphic
      000767 CDr00r00         [24] 1553 	call	_sprite_init
                                   1554 ;..\modes\explorationmode.c:156: setFrame(&explosionGraphic, 0);
      00076A 01 00 00         [12] 1555 	ld	bc, #0x0000
      00076D 11r6Fr00         [12] 1556 	ld	de, #_explosionGraphic
      000770 CDr00r00         [24] 1557 	call	_setFrame
                                   1558 ;..\modes\explorationmode.c:157: hide(&explosionGraphic);
      000773 11r6Fr00         [12] 1559 	ld	de, #_explosionGraphic
      000776 CDr00r00         [24] 1560 	call	_hide
                                   1561 ;..\modes\explorationmode.c:158: setPalette(&explosionGraphic, fire_pallet);
      000779 F8 00            [12] 1562 	ldhl	sp,	#0
      00077B 7E               [ 8] 1563 	ld	a, (hl)
      00077C 11r6Fr00         [12] 1564 	ld	de, #_explosionGraphic
      00077F CDr00r00         [24] 1565 	call	_setPalette
                                   1566 ;..\modes\explorationmode.c:159: explosion.isAlive = false;
      000782 21r2Br00         [12] 1567 	ld	hl, #(_explosion + 4)
      000785 36 00            [12] 1568 	ld	(hl), #0x00
                                   1569 ;..\modes\explorationmode.c:162: }
      000787 33               [ 8] 1570 	inc	sp
      000788 C9               [16] 1571 	ret
                                   1572 ;..\modes\explorationmode.c:164: void ExplorationMode_update(struct ExplorationMode* this) {
                                   1573 ;	---------------------------------
                                   1574 ; Function ExplorationMode_update
                                   1575 ; ---------------------------------
      000789                       1576 _ExplorationMode_update::
      000789 E8 F2            [16] 1577 	add	sp, #-14
      00078B F8 0C            [12] 1578 	ldhl	sp,	#12
      00078D 7B               [ 4] 1579 	ld	a, e
      00078E 22               [ 8] 1580 	ld	(hl+), a
                                   1581 ;..\modes\explorationmode.c:165: this->counter++;
      00078F 7A               [ 4] 1582 	ld	a, d
      000790 32               [ 8] 1583 	ld	(hl-), a
      000791 2A               [ 8] 1584 	ld	a, (hl+)
      000792 5F               [ 4] 1585 	ld	e, a
      000793 56               [ 8] 1586 	ld	d, (hl)
      000794 1A               [ 8] 1587 	ld	a, (de)
      000795 4F               [ 4] 1588 	ld	c, a
      000796 13               [ 8] 1589 	inc	de
      000797 1A               [ 8] 1590 	ld	a, (de)
      000798 47               [ 4] 1591 	ld	b, a
      000799 03               [ 8] 1592 	inc	bc
      00079A 3A               [ 8] 1593 	ld	a, (hl-)
      00079B 6E               [ 8] 1594 	ld	l, (hl)
      00079C 67               [ 4] 1595 	ld	h, a
      00079D 79               [ 4] 1596 	ld	a, c
      00079E 22               [ 8] 1597 	ld	(hl+), a
      00079F 70               [ 8] 1598 	ld	(hl), b
                                   1599 ;..\modes\explorationmode.c:166: if(this->counter > 10) {
      0007A0 58               [ 4] 1600 	ld	e, b
      0007A1 16 00            [ 8] 1601 	ld	d, #0x00
      0007A3 3E 0A            [ 8] 1602 	ld	a, #0x0a
      0007A5 B9               [ 4] 1603 	cp	a, c
      0007A6 3E 00            [ 8] 1604 	ld	a, #0x00
      0007A8 98               [ 4] 1605 	sbc	a, b
      0007A9 CB 7B            [ 8] 1606 	bit	7, e
      0007AB 28 07            [12] 1607 	jr	Z, 00205$
      0007AD CB 7A            [ 8] 1608 	bit	7, d
      0007AF 20 08            [12] 1609 	jr	NZ, 00206$
      0007B1 BF               [ 4] 1610 	cp	a, a
      0007B2 18 05            [12] 1611 	jr	00206$
      0007B4                       1612 00205$:
      0007B4 CB 7A            [ 8] 1613 	bit	7, d
      0007B6 28 01            [12] 1614 	jr	Z, 00206$
      0007B8 37               [ 4] 1615 	scf
      0007B9                       1616 00206$:
      0007B9 D2r9Dr08         [16] 1617 	jp	NC, 00115$
                                   1618 ;..\modes\explorationmode.c:167: this->counter = 0;
      0007BC F8 0C            [12] 1619 	ldhl	sp,	#12
      0007BE 2A               [ 8] 1620 	ld	a,	(hl+)
      0007BF 66               [ 8] 1621 	ld	h, (hl)
      0007C0 6F               [ 4] 1622 	ld	l, a
      0007C1 AF               [ 4] 1623 	xor	a, a
      0007C2 22               [ 8] 1624 	ld	(hl+), a
      0007C3 77               [ 8] 1625 	ld	(hl), a
                                   1626 ;..\modes\explorationmode.c:169: if(photon.isAlive){
      0007C4 FAr04r00         [16] 1627 	ld	a, (#(_photon + 4) + 0)
      0007C7 F8 0B            [12] 1628 	ldhl	sp,#11
      0007C9 77               [ 8] 1629 	ld	(hl), a
      0007CA B7               [ 4] 1630 	or	a, a
      0007CB 28 40            [12] 1631 	jr	Z, 00104$
                                   1632 ;..\modes\explorationmode.c:170: photonGraphic.frame++;
      0007CD 2B               [ 8] 1633 	dec	hl
      0007CE 11r3Fr00         [12] 1634 	ld	de, #(_photonGraphic + 15)
      0007D1 1A               [ 8] 1635 	ld	a, (de)
      0007D2 22               [ 8] 1636 	ld	(hl+), a
      0007D3 13               [ 8] 1637 	inc	de
      0007D4 1A               [ 8] 1638 	ld	a, (de)
      0007D5 32               [ 8] 1639 	ld	(hl-), a
      0007D6 2A               [ 8] 1640 	ld	a, (hl+)
      0007D7 4F               [ 4] 1641 	ld	c, a
      0007D8 46               [ 8] 1642 	ld	b, (hl)
      0007D9 03               [ 8] 1643 	inc	bc
      0007DA 21r3Fr00         [12] 1644 	ld	hl, #(_photonGraphic + 15)
      0007DD 79               [ 4] 1645 	ld	a, c
      0007DE 22               [ 8] 1646 	ld	(hl+), a
      0007DF 70               [ 8] 1647 	ld	(hl), b
                                   1648 ;..\modes\explorationmode.c:171: if(photonGraphic.frame > 1)photonGraphic.frame = 0;
      0007E0 58               [ 4] 1649 	ld	e, b
      0007E1 16 00            [ 8] 1650 	ld	d, #0x00
      0007E3 3E 01            [ 8] 1651 	ld	a, #0x01
      0007E5 B9               [ 4] 1652 	cp	a, c
      0007E6 3E 00            [ 8] 1653 	ld	a, #0x00
      0007E8 98               [ 4] 1654 	sbc	a, b
      0007E9 CB 7B            [ 8] 1655 	bit	7, e
      0007EB 28 07            [12] 1656 	jr	Z, 00207$
      0007ED CB 7A            [ 8] 1657 	bit	7, d
      0007EF 20 08            [12] 1658 	jr	NZ, 00208$
      0007F1 BF               [ 4] 1659 	cp	a, a
      0007F2 18 05            [12] 1660 	jr	00208$
      0007F4                       1661 00207$:
      0007F4 CB 7A            [ 8] 1662 	bit	7, d
      0007F6 28 01            [12] 1663 	jr	Z, 00208$
      0007F8 37               [ 4] 1664 	scf
      0007F9                       1665 00208$:
      0007F9 30 06            [12] 1666 	jr	NC, 00102$
      0007FB 21r3Fr00         [12] 1667 	ld	hl, #(_photonGraphic + 15)
      0007FE AF               [ 4] 1668 	xor	a, a
      0007FF 22               [ 8] 1669 	ld	(hl+), a
      000800 77               [ 8] 1670 	ld	(hl), a
      000801                       1671 00102$:
                                   1672 ;..\modes\explorationmode.c:172: setFrame(&photonGraphic, photonGraphic.frame);
      000801 21r3Fr00         [12] 1673 	ld	hl, #(_photonGraphic + 15)
      000804 2A               [ 8] 1674 	ld	a, (hl+)
      000805 4F               [ 4] 1675 	ld	c, a
      000806 46               [ 8] 1676 	ld	b, (hl)
      000807 11r30r00         [12] 1677 	ld	de, #_photonGraphic
      00080A CDr00r00         [24] 1678 	call	_setFrame
      00080D                       1679 00104$:
                                   1680 ;..\modes\explorationmode.c:174: if(asteroid.isAlive == true){
      00080D FAr0Dr00         [16] 1681 	ld	a, (#(_asteroid + 4) + 0)
      000810 3D               [ 4] 1682 	dec	a
      000811 20 3A            [12] 1683 	jr	NZ, 00108$
                                   1684 ;..\modes\explorationmode.c:175: asteroidGraphic.frame++;
      000813 21r69r00         [12] 1685 	ld	hl, #(_asteroidGraphic + 15)
      000816 2A               [ 8] 1686 	ld	a, (hl+)
      000817 4F               [ 4] 1687 	ld	c, a
      000818 46               [ 8] 1688 	ld	b, (hl)
      000819 03               [ 8] 1689 	inc	bc
      00081A 21r69r00         [12] 1690 	ld	hl, #(_asteroidGraphic + 15)
      00081D 79               [ 4] 1691 	ld	a, c
      00081E 22               [ 8] 1692 	ld	(hl+), a
      00081F 70               [ 8] 1693 	ld	(hl), b
                                   1694 ;..\modes\explorationmode.c:176: if(asteroidGraphic.frame > 3) {
      000820 58               [ 4] 1695 	ld	e, b
      000821 16 00            [ 8] 1696 	ld	d, #0x00
      000823 3E 03            [ 8] 1697 	ld	a, #0x03
      000825 B9               [ 4] 1698 	cp	a, c
      000826 3E 00            [ 8] 1699 	ld	a, #0x00
      000828 98               [ 4] 1700 	sbc	a, b
      000829 CB 7B            [ 8] 1701 	bit	7, e
      00082B 28 07            [12] 1702 	jr	Z, 00211$
      00082D CB 7A            [ 8] 1703 	bit	7, d
      00082F 20 08            [12] 1704 	jr	NZ, 00212$
      000831 BF               [ 4] 1705 	cp	a, a
      000832 18 05            [12] 1706 	jr	00212$
      000834                       1707 00211$:
      000834 CB 7A            [ 8] 1708 	bit	7, d
      000836 28 01            [12] 1709 	jr	Z, 00212$
      000838 37               [ 4] 1710 	scf
      000839                       1711 00212$:
      000839 30 06            [12] 1712 	jr	NC, 00106$
                                   1713 ;..\modes\explorationmode.c:177: asteroidGraphic.frame = 0;
      00083B 21r69r00         [12] 1714 	ld	hl, #(_asteroidGraphic + 15)
      00083E AF               [ 4] 1715 	xor	a, a
      00083F 22               [ 8] 1716 	ld	(hl+), a
      000840 77               [ 8] 1717 	ld	(hl), a
      000841                       1718 00106$:
                                   1719 ;..\modes\explorationmode.c:179: setFrame(&asteroidGraphic, asteroidGraphic.frame);
      000841 21r69r00         [12] 1720 	ld	hl, #(_asteroidGraphic + 15)
      000844 2A               [ 8] 1721 	ld	a, (hl+)
      000845 4F               [ 4] 1722 	ld	c, a
      000846 46               [ 8] 1723 	ld	b, (hl)
      000847 11r5Ar00         [12] 1724 	ld	de, #_asteroidGraphic
      00084A CDr00r00         [24] 1725 	call	_setFrame
      00084D                       1726 00108$:
                                   1727 ;..\modes\explorationmode.c:181: if(explosion.isAlive == true) {
      00084D FAr2Br00         [16] 1728 	ld	a, (#(_explosion + 4) + 0)
      000850 3D               [ 4] 1729 	dec	a
      000851 20 4A            [12] 1730 	jr	NZ, 00115$
                                   1731 ;..\modes\explorationmode.c:182: explosionGraphic.frame++;
      000853 21r7Er00         [12] 1732 	ld	hl, #(_explosionGraphic + 15)
      000856 2A               [ 8] 1733 	ld	a, (hl+)
      000857 4F               [ 4] 1734 	ld	c, a
      000858 46               [ 8] 1735 	ld	b, (hl)
      000859 03               [ 8] 1736 	inc	bc
      00085A 21r7Er00         [12] 1737 	ld	hl, #(_explosionGraphic + 15)
      00085D 79               [ 4] 1738 	ld	a, c
      00085E 22               [ 8] 1739 	ld	(hl+), a
      00085F 70               [ 8] 1740 	ld	(hl), b
                                   1741 ;..\modes\explorationmode.c:183: if(explosionGraphic.frame > 3) {
      000860 58               [ 4] 1742 	ld	e, b
      000861 16 00            [ 8] 1743 	ld	d, #0x00
      000863 3E 03            [ 8] 1744 	ld	a, #0x03
      000865 B9               [ 4] 1745 	cp	a, c
      000866 3E 00            [ 8] 1746 	ld	a, #0x00
      000868 98               [ 4] 1747 	sbc	a, b
      000869 CB 7B            [ 8] 1748 	bit	7, e
      00086B 28 07            [12] 1749 	jr	Z, 00215$
      00086D CB 7A            [ 8] 1750 	bit	7, d
      00086F 20 08            [12] 1751 	jr	NZ, 00216$
      000871 BF               [ 4] 1752 	cp	a, a
      000872 18 05            [12] 1753 	jr	00216$
      000874                       1754 00215$:
      000874 CB 7A            [ 8] 1755 	bit	7, d
      000876 28 01            [12] 1756 	jr	Z, 00216$
      000878 37               [ 4] 1757 	scf
      000879                       1758 00216$:
      000879 30 16            [12] 1759 	jr	NC, 00110$
                                   1760 ;..\modes\explorationmode.c:184: explosion.isAlive = false;
      00087B 21r2Br00         [12] 1761 	ld	hl, #(_explosion + 4)
      00087E 36 00            [12] 1762 	ld	(hl), #0x00
                                   1763 ;..\modes\explorationmode.c:185: hide(&explosionGraphic);
      000880 11r6Fr00         [12] 1764 	ld	de, #_explosionGraphic
      000883 CDr00r00         [24] 1765 	call	_hide
                                   1766 ;..\modes\explorationmode.c:186: setFrame(&explosionGraphic, 0);
      000886 01 00 00         [12] 1767 	ld	bc, #0x0000
      000889 11r6Fr00         [12] 1768 	ld	de, #_explosionGraphic
      00088C CDr00r00         [24] 1769 	call	_setFrame
      00088F 18 0C            [12] 1770 	jr	00115$
      000891                       1771 00110$:
                                   1772 ;..\modes\explorationmode.c:189: setFrame(&explosionGraphic, explosionGraphic.frame);
      000891 21r7Er00         [12] 1773 	ld	hl, #(_explosionGraphic + 15)
      000894 2A               [ 8] 1774 	ld	a, (hl+)
      000895 4F               [ 4] 1775 	ld	c, a
      000896 46               [ 8] 1776 	ld	b, (hl)
      000897 11r6Fr00         [12] 1777 	ld	de, #_explosionGraphic
      00089A CDr00r00         [24] 1778 	call	_setFrame
      00089D                       1779 00115$:
                                   1780 ;..\modes\explorationmode.c:195: if(photon.isAlive) {
      00089D FAr04r00         [16] 1781 	ld	a, (#(_photon + 4) + 0)
      0008A0 B7               [ 4] 1782 	or	a, a
      0008A1 28 33            [12] 1783 	jr	Z, 00117$
                                   1784 ;..\modes\explorationmode.c:196: photon.world.x += photon.vector.x;
      0008A3 21r00r00         [12] 1785 	ld	hl, #_photon
      0008A6 2A               [ 8] 1786 	ld	a, (hl+)
      0008A7 4F               [ 4] 1787 	ld	c, a
      0008A8 46               [ 8] 1788 	ld	b, (hl)
      0008A9 21r05r00         [12] 1789 	ld	hl, #(_photon + 5)
      0008AC 2A               [ 8] 1790 	ld	a,	(hl+)
      0008AD 66               [ 8] 1791 	ld	h, (hl)
                                   1792 ;	spillPairReg hl
      0008AE 6F               [ 4] 1793 	ld	l, a
                                   1794 ;	spillPairReg hl
                                   1795 ;	spillPairReg hl
      0008AF 09               [ 8] 1796 	add	hl, bc
      0008B0 4D               [ 4] 1797 	ld	c, l
      0008B1 44               [ 4] 1798 	ld	b, h
      0008B2 21r00r00         [12] 1799 	ld	hl, #_photon
      0008B5 79               [ 4] 1800 	ld	a, c
      0008B6 22               [ 8] 1801 	ld	(hl+), a
      0008B7 70               [ 8] 1802 	ld	(hl), b
                                   1803 ;..\modes\explorationmode.c:197: photon.world.y += photon.vector.y;
      0008B8 11r02r00         [12] 1804 	ld	de, #(_photon + 2)
      0008BB 1A               [ 8] 1805 	ld	a, (de)
      0008BC F8 0A            [12] 1806 	ldhl	sp,	#10
      0008BE 22               [ 8] 1807 	ld	(hl+), a
      0008BF 13               [ 8] 1808 	inc	de
      0008C0 1A               [ 8] 1809 	ld	a, (de)
      0008C1 77               [ 8] 1810 	ld	(hl), a
      0008C2 21r07r00         [12] 1811 	ld	hl, #(_photon + 7)
      0008C5 2A               [ 8] 1812 	ld	a, (hl+)
      0008C6 4F               [ 4] 1813 	ld	c, a
      0008C7 46               [ 8] 1814 	ld	b, (hl)
      0008C8 F8 0A            [12] 1815 	ldhl	sp,	#10
      0008CA 2A               [ 8] 1816 	ld	a,	(hl+)
      0008CB 66               [ 8] 1817 	ld	h, (hl)
      0008CC 6F               [ 4] 1818 	ld	l, a
      0008CD 09               [ 8] 1819 	add	hl, bc
      0008CE 4D               [ 4] 1820 	ld	c, l
      0008CF 44               [ 4] 1821 	ld	b, h
      0008D0 21r02r00         [12] 1822 	ld	hl, #(_photon + 2)
      0008D3 79               [ 4] 1823 	ld	a, c
      0008D4 22               [ 8] 1824 	ld	(hl+), a
      0008D5 70               [ 8] 1825 	ld	(hl), b
      0008D6                       1826 00117$:
                                   1827 ;..\modes\explorationmode.c:200: struct GameObject* ship = gameobjects(GO_SHIP);
      0008D6 11 00 00         [12] 1828 	ld	de, #0x0000
      0008D9 CDr00r00         [24] 1829 	call	_gameobjects
      0008DC F8 08            [12] 1830 	ldhl	sp,	#8
      0008DE 79               [ 4] 1831 	ld	a, c
      0008DF 22               [ 8] 1832 	ld	(hl+), a
      0008E0 70               [ 8] 1833 	ld	(hl), b
                                   1834 ;..\modes\explorationmode.c:201: manage_asteroid(ship);
      0008E1 F8 08            [12] 1835 	ldhl	sp,	#8
      0008E3 2A               [ 8] 1836 	ld	a, (hl+)
      0008E4 5F               [ 4] 1837 	ld	e, a
      0008E5 56               [ 8] 1838 	ld	d, (hl)
      0008E6 CDrB9r00         [24] 1839 	call	_manage_asteroid
                                   1840 ;..\modes\explorationmode.c:203: if(explosion.isAlive == true){
      0008E9 FAr2Br00         [16] 1841 	ld	a, (#(_explosion + 4) + 0)
      0008EC 3D               [ 4] 1842 	dec	a
      0008ED 20 3A            [12] 1843 	jr	NZ, 00119$
                                   1844 ;..\modes\explorationmode.c:205: screen = to_screen(&ship->world, &explosion.world);
      0008EF 01r27r00         [12] 1845 	ld	bc, #_explosion
      0008F2 F8 08            [12] 1846 	ldhl	sp,	#8
      0008F4 2A               [ 8] 1847 	ld	a, (hl+)
      0008F5 5F               [ 4] 1848 	ld	e, a
      0008F6 56               [ 8] 1849 	ld	d, (hl)
      0008F7 F8 04            [12] 1850 	ldhl	sp,	#4
      0008F9 E5               [16] 1851 	push	hl
      0008FA CDr4Ar00         [24] 1852 	call	_to_screen
      0008FD F8 04            [12] 1853 	ldhl	sp,	#4
      0008FF 4D               [ 4] 1854 	ld	c, l
      000900 44               [ 4] 1855 	ld	b, h
      000901 11 04 00         [12] 1856 	ld	de, #0x0004
      000904 D5               [16] 1857 	push	de
      000905 21 02 00         [12] 1858 	ld	hl, #2
      000908 39               [ 8] 1859 	add	hl, sp
      000909 5D               [ 4] 1860 	ld	e, l
      00090A 54               [ 4] 1861 	ld	d, h
      00090B CDr00r00         [24] 1862 	call	___memcpy
                                   1863 ;..\modes\explorationmode.c:206: move(&explosionGraphic, screen.x, screen.y);
      00090E F8 02            [12] 1864 	ldhl	sp,	#2
      000910 2A               [ 8] 1865 	ld	a, (hl+)
      000911 4F               [ 4] 1866 	ld	c, a
      000912 46               [ 8] 1867 	ld	b, (hl)
      000913 F8 00            [12] 1868 	ldhl	sp,	#0
      000915 7E               [ 8] 1869 	ld	a, (hl)
      000916 F8 0A            [12] 1870 	ldhl	sp,	#10
      000918 77               [ 8] 1871 	ld	(hl), a
      000919 F8 01            [12] 1872 	ldhl	sp,	#1
      00091B 7E               [ 8] 1873 	ld	a, (hl)
      00091C F8 0B            [12] 1874 	ldhl	sp,	#11
      00091E 32               [ 8] 1875 	ld	(hl-), a
      00091F 11r6Fr00         [12] 1876 	ld	de, #_explosionGraphic
      000922 C5               [16] 1877 	push	bc
      000923 2A               [ 8] 1878 	ld	a, (hl+)
      000924 4F               [ 4] 1879 	ld	c, a
      000925 46               [ 8] 1880 	ld	b, (hl)
      000926 CDr00r00         [24] 1881 	call	_move
      000929                       1882 00119$:
                                   1883 ;..\modes\explorationmode.c:209: if(ship->isAlive == false && this->gameover_fader < 255){
      000929 F8 08            [12] 1884 	ldhl	sp,#8
      00092B 2A               [ 8] 1885 	ld	a, (hl+)
      00092C 5F               [ 4] 1886 	ld	e, a
      00092D 56               [ 8] 1887 	ld	d, (hl)
      00092E 21 04 00         [12] 1888 	ld	hl, #0x0004
      000931 19               [ 8] 1889 	add	hl, de
      000932 4D               [ 4] 1890 	ld	c, l
      000933 44               [ 4] 1891 	ld	b, h
      000934 0A               [ 8] 1892 	ld	a, (bc)
      000935 B7               [ 4] 1893 	or	a, a
      000936 20 51            [12] 1894 	jr	NZ, 00123$
      000938 F8 0C            [12] 1895 	ldhl	sp,#12
      00093A 2A               [ 8] 1896 	ld	a, (hl+)
      00093B 5F               [ 4] 1897 	ld	e, a
      00093C 56               [ 8] 1898 	ld	d, (hl)
      00093D 21 04 00         [12] 1899 	ld	hl, #0x0004
      000940 19               [ 8] 1900 	add	hl, de
      000941 4D               [ 4] 1901 	ld	c, l
      000942 44               [ 4] 1902 	ld	b, h
      000943 0A               [ 8] 1903 	ld	a, (bc)
      000944 FE FF            [ 8] 1904 	cp	a, #0xff
      000946 30 41            [12] 1905 	jr	NC, 00123$
                                   1906 ;..\modes\explorationmode.c:210: this->gameover_fader++;
      000948 3C               [ 4] 1907 	inc	a
                                   1908 ;..\modes\explorationmode.c:211: update_palette(hGameOverPalette, RGB8(0, 0, 0), RGB8(0, 50, 64), RGB8(0, 100, 128), RGB8(0, this->gameover_fader/2, this->gameover_fader));
      000949 5F               [ 4] 1909 	ld	e, a
      00094A 02               [ 8] 1910 	ld	(bc), a
      00094B CB 37            [ 8] 1911 	swap	a
      00094D 07               [ 4] 1912 	rlca
      00094E E6 1F            [ 8] 1913 	and	a, #0x1f
                                   1914 ;	spillPairReg hl
                                   1915 ;	spillPairReg hl
                                   1916 ;	spillPairReg hl
                                   1917 ;	spillPairReg hl
      000950 87               [ 4] 1918 	add	a, a
      000951 87               [ 4] 1919 	add	a, a
      000952 47               [ 4] 1920 	ld	b, a
      000953 0E 00            [ 8] 1921 	ld	c, #0x00
      000955 51               [ 4] 1922 	ld	d, c
      000956 CB 2A            [ 8] 1923 	sra	d
      000958 CB 1B            [ 8] 1924 	rr	e
      00095A CB 2A            [ 8] 1925 	sra	d
      00095C CB 1B            [ 8] 1926 	rr	e
      00095E CB 2A            [ 8] 1927 	sra	d
      000960 CB 1B            [ 8] 1928 	rr	e
      000962 CB 2A            [ 8] 1929 	sra	d
      000964 CB 1B            [ 8] 1930 	rr	e
      000966 7B               [ 4] 1931 	ld	a, e
      000967 E6 1F            [ 8] 1932 	and	a, #0x1f
      000969 6F               [ 4] 1933 	ld	l, a
                                   1934 ;	spillPairReg hl
                                   1935 ;	spillPairReg hl
      00096A 26 00            [ 8] 1936 	ld	h, #0x00
                                   1937 ;	spillPairReg hl
                                   1938 ;	spillPairReg hl
      00096C 29               [ 8] 1939 	add	hl, hl
      00096D 29               [ 8] 1940 	add	hl, hl
      00096E 29               [ 8] 1941 	add	hl, hl
      00096F 29               [ 8] 1942 	add	hl, hl
      000970 29               [ 8] 1943 	add	hl, hl
      000971 79               [ 4] 1944 	ld	a, c
      000972 B5               [ 4] 1945 	or	a, l
      000973 4F               [ 4] 1946 	ld	c, a
      000974 78               [ 4] 1947 	ld	a, b
      000975 B4               [ 4] 1948 	or	a, h
      000976 47               [ 4] 1949 	ld	b, a
      000977 C5               [16] 1950 	push	bc
      000978 11 80 41         [12] 1951 	ld	de, #0x4180
      00097B D5               [16] 1952 	push	de
      00097C 11 C0 20         [12] 1953 	ld	de, #0x20c0
      00097F D5               [16] 1954 	push	de
      000980 11 00 00         [12] 1955 	ld	de, #0x0000
      000983 FAr99r00         [16] 1956 	ld	a, (#_hGameOverPalette)
      000986 CDr00r00         [24] 1957 	call	_update_palette
      000989                       1958 00123$:
                                   1959 ;..\modes\explorationmode.c:214: }
      000989 E8 0E            [16] 1960 	add	sp, #14
      00098B C9               [16] 1961 	ret
                                   1962 ;..\modes\explorationmode.c:217: void ExplorationMode_processInput(struct ExplorationMode* this, byte joypad) {
                                   1963 ;	---------------------------------
                                   1964 ; Function ExplorationMode_processInput
                                   1965 ; ---------------------------------
      00098C                       1966 _ExplorationMode_processInput::
      00098C E8 EC            [16] 1967 	add	sp, #-20
      00098E F8 0F            [12] 1968 	ldhl	sp,	#15
                                   1969 ;..\modes\explorationmode.c:218: int x = 0; int y = 0;
      000990 22               [ 8] 1970 	ld	(hl+), a
      000991 AF               [ 4] 1971 	xor	a, a
      000992 22               [ 8] 1972 	ld	(hl+), a
      000993 22               [ 8] 1973 	ld	(hl+), a
      000994 AF               [ 4] 1974 	xor	a, a
      000995 22               [ 8] 1975 	ld	(hl+), a
      000996 77               [ 8] 1976 	ld	(hl), a
                                   1977 ;..\modes\explorationmode.c:219: struct GameObject* ship = this->exploration_objects + GO_SHIP;
      000997 6B               [ 4] 1978 	ld	l, e
                                   1979 ;	spillPairReg hl
                                   1980 ;	spillPairReg hl
      000998 62               [ 4] 1981 	ld	h, d
                                   1982 ;	spillPairReg hl
                                   1983 ;	spillPairReg hl
      000999 23               [ 8] 1984 	inc	hl
      00099A 23               [ 8] 1985 	inc	hl
      00099B 2A               [ 8] 1986 	ld	a, (hl+)
      00099C 4F               [ 4] 1987 	ld	c, a
      00099D 46               [ 8] 1988 	ld	b, (hl)
      00099E 33               [ 8] 1989 	inc	sp
      00099F 33               [ 8] 1990 	inc	sp
      0009A0 C5               [16] 1991 	push	bc
                                   1992 ;..\modes\explorationmode.c:220: struct GameObject* planet1 = this->exploration_objects + GO_PLANET1;
      0009A1 21 09 00         [12] 1993 	ld	hl, #0x0009
      0009A4 09               [ 8] 1994 	add	hl, bc
      0009A5 E5               [16] 1995 	push	hl
      0009A6 7D               [ 4] 1996 	ld	a, l
      0009A7 F8 04            [12] 1997 	ldhl	sp,	#4
      0009A9 77               [ 8] 1998 	ld	(hl), a
      0009AA E1               [12] 1999 	pop	hl
      0009AB 7C               [ 4] 2000 	ld	a, h
      0009AC F8 03            [12] 2001 	ldhl	sp,	#3
      0009AE 77               [ 8] 2002 	ld	(hl), a
                                   2003 ;..\modes\explorationmode.c:221: if(ship->isAlive == false)return;
      0009AF D1               [12] 2004 	pop	de
      0009B0 D5               [16] 2005 	push	de
      0009B1 21 04 00         [12] 2006 	ld	hl, #0x0004
      0009B4 19               [ 8] 2007 	add	hl, de
      0009B5 4D               [ 4] 2008 	ld	c, l
      0009B6 44               [ 4] 2009 	ld	b, h
      0009B7 0A               [ 8] 2010 	ld	a, (bc)
      0009B8 4F               [ 4] 2011 	ld	c, a
      0009B9 B7               [ 4] 2012 	or	a, a
      0009BA CArC1r0C         [16] 2013 	jp	Z,00138$
                                   2014 ;..\modes\explorationmode.c:225: if (joypad & J_RIGHT)
      0009BD E5               [16] 2015 	push	hl
      0009BE F8 11            [12] 2016 	ldhl	sp,	#17
      0009C0 CB 46            [12] 2017 	bit	0, (hl)
      0009C2 E1               [12] 2018 	pop	hl
      0009C3 28 07            [12] 2019 	jr	Z, 00104$
                                   2020 ;..\modes\explorationmode.c:227: x++;
      0009C5 F8 10            [12] 2021 	ldhl	sp,	#16
      0009C7 3E 01            [ 8] 2022 	ld	a, #0x01
      0009C9 22               [ 8] 2023 	ld	(hl+), a
      0009CA AF               [ 4] 2024 	xor	a, a
      0009CB 77               [ 8] 2025 	ld	(hl), a
      0009CC                       2026 00104$:
                                   2027 ;..\modes\explorationmode.c:231: if (joypad & J_LEFT)
      0009CC E5               [16] 2028 	push	hl
      0009CD F8 11            [12] 2029 	ldhl	sp,	#17
      0009CF CB 4E            [12] 2030 	bit	1, (hl)
      0009D1 E1               [12] 2031 	pop	hl
      0009D2 28 0A            [12] 2032 	jr	Z, 00106$
                                   2033 ;..\modes\explorationmode.c:233: x--;
      0009D4 F8 10            [12] 2034 	ldhl	sp,#16
      0009D6 2A               [ 8] 2035 	ld	a, (hl+)
      0009D7 5F               [ 4] 2036 	ld	e, a
      0009D8 3A               [ 8] 2037 	ld	a, (hl-)
      0009D9 57               [ 4] 2038 	ld	d, a
      0009DA 1B               [ 8] 2039 	dec	de
      0009DB 7B               [ 4] 2040 	ld	a, e
      0009DC 22               [ 8] 2041 	ld	(hl+), a
      0009DD 72               [ 8] 2042 	ld	(hl), d
      0009DE                       2043 00106$:
                                   2044 ;..\modes\explorationmode.c:237: if (joypad & J_DOWN)
      0009DE E5               [16] 2045 	push	hl
      0009DF F8 11            [12] 2046 	ldhl	sp,	#17
      0009E1 CB 5E            [12] 2047 	bit	3, (hl)
      0009E3 E1               [12] 2048 	pop	hl
      0009E4 28 07            [12] 2049 	jr	Z, 00108$
                                   2050 ;..\modes\explorationmode.c:239: y++;
      0009E6 F8 12            [12] 2051 	ldhl	sp,	#18
      0009E8 3E 01            [ 8] 2052 	ld	a, #0x01
      0009EA 22               [ 8] 2053 	ld	(hl+), a
      0009EB AF               [ 4] 2054 	xor	a, a
      0009EC 77               [ 8] 2055 	ld	(hl), a
      0009ED                       2056 00108$:
                                   2057 ;..\modes\explorationmode.c:243: if (joypad & J_UP)
      0009ED E5               [16] 2058 	push	hl
      0009EE F8 11            [12] 2059 	ldhl	sp,	#17
      0009F0 CB 56            [12] 2060 	bit	2, (hl)
      0009F2 E1               [12] 2061 	pop	hl
      0009F3 28 0A            [12] 2062 	jr	Z, 00110$
                                   2063 ;..\modes\explorationmode.c:245: y--;
      0009F5 F8 12            [12] 2064 	ldhl	sp,#18
      0009F7 2A               [ 8] 2065 	ld	a, (hl+)
      0009F8 5F               [ 4] 2066 	ld	e, a
      0009F9 3A               [ 8] 2067 	ld	a, (hl-)
      0009FA 57               [ 4] 2068 	ld	d, a
      0009FB 1B               [ 8] 2069 	dec	de
      0009FC 7B               [ 4] 2070 	ld	a, e
      0009FD 22               [ 8] 2071 	ld	(hl+), a
      0009FE 72               [ 8] 2072 	ld	(hl), d
      0009FF                       2073 00110$:
                                   2074 ;..\modes\explorationmode.c:251: photon.world.y = ship->world.y + 4;
      0009FF D1               [12] 2075 	pop	de
      000A00 D5               [16] 2076 	push	de
      000A01 21 02 00         [12] 2077 	ld	hl, #0x0002
      000A04 19               [ 8] 2078 	add	hl, de
      000A05 E5               [16] 2079 	push	hl
      000A06 7D               [ 4] 2080 	ld	a, l
      000A07 F8 06            [12] 2081 	ldhl	sp,	#6
      000A09 77               [ 8] 2082 	ld	(hl), a
      000A0A E1               [12] 2083 	pop	hl
      000A0B 7C               [ 4] 2084 	ld	a, h
      000A0C F8 05            [12] 2085 	ldhl	sp,	#5
      000A0E 77               [ 8] 2086 	ld	(hl), a
                                   2087 ;..\modes\explorationmode.c:254: photon.vector.x = ship->vector.x * 2;
      000A0F D1               [12] 2088 	pop	de
      000A10 D5               [16] 2089 	push	de
      000A11 21 05 00         [12] 2090 	ld	hl, #0x0005
      000A14 19               [ 8] 2091 	add	hl, de
      000A15 E5               [16] 2092 	push	hl
      000A16 7D               [ 4] 2093 	ld	a, l
      000A17 F8 08            [12] 2094 	ldhl	sp,	#8
      000A19 77               [ 8] 2095 	ld	(hl), a
      000A1A E1               [12] 2096 	pop	hl
      000A1B 7C               [ 4] 2097 	ld	a, h
      000A1C F8 07            [12] 2098 	ldhl	sp,	#7
                                   2099 ;..\modes\explorationmode.c:255: photon.vector.y = ship->vector.y * 2;
      000A1E 32               [ 8] 2100 	ld	(hl-), a
      000A1F 2A               [ 8] 2101 	ld	a, (hl+)
      000A20 5F               [ 4] 2102 	ld	e, a
      000A21 56               [ 8] 2103 	ld	d, (hl)
      000A22 21 02 00         [12] 2104 	ld	hl, #0x0002
      000A25 19               [ 8] 2105 	add	hl, de
      000A26 E5               [16] 2106 	push	hl
      000A27 7D               [ 4] 2107 	ld	a, l
      000A28 F8 0A            [12] 2108 	ldhl	sp,	#10
      000A2A 77               [ 8] 2109 	ld	(hl), a
      000A2B E1               [12] 2110 	pop	hl
      000A2C 7C               [ 4] 2111 	ld	a, h
      000A2D F8 09            [12] 2112 	ldhl	sp,	#9
      000A2F 77               [ 8] 2113 	ld	(hl), a
                                   2114 ;..\modes\explorationmode.c:248: if(joypad & J_A) {
      000A30 E5               [16] 2115 	push	hl
      000A31 F8 11            [12] 2116 	ldhl	sp,	#17
      000A33 CB 66            [12] 2117 	bit	4, (hl)
      000A35 E1               [12] 2118 	pop	hl
      000A36 28 5E            [12] 2119 	jr	Z, 00114$
                                   2120 ;..\modes\explorationmode.c:249: if(photon.isAlive == false){
      000A38 FAr04r00         [16] 2121 	ld	a, (#(_photon + 4) + 0)
      000A3B B7               [ 4] 2122 	or	a, a
      000A3C 20 58            [12] 2123 	jr	NZ, 00114$
                                   2124 ;..\modes\explorationmode.c:250: photon.world.x = ship->world.x + 8;
      000A3E D1               [12] 2125 	pop	de
      000A3F D5               [16] 2126 	push	de
      000A40 1A               [ 8] 2127 	ld	a, (de)
      000A41 4F               [ 4] 2128 	ld	c, a
      000A42 13               [ 8] 2129 	inc	de
      000A43 1A               [ 8] 2130 	ld	a, (de)
      000A44 47               [ 4] 2131 	ld	b, a
      000A45 21 08 00         [12] 2132 	ld	hl, #0x0008
      000A48 09               [ 8] 2133 	add	hl, bc
      000A49 4D               [ 4] 2134 	ld	c, l
      000A4A 44               [ 4] 2135 	ld	b, h
      000A4B 21r00r00         [12] 2136 	ld	hl, #_photon
      000A4E 79               [ 4] 2137 	ld	a, c
      000A4F 22               [ 8] 2138 	ld	(hl+), a
      000A50 70               [ 8] 2139 	ld	(hl), b
                                   2140 ;..\modes\explorationmode.c:251: photon.world.y = ship->world.y + 4;
      000A51 F8 04            [12] 2141 	ldhl	sp,#4
      000A53 2A               [ 8] 2142 	ld	a, (hl+)
      000A54 5F               [ 4] 2143 	ld	e, a
      000A55 56               [ 8] 2144 	ld	d, (hl)
      000A56 1A               [ 8] 2145 	ld	a, (de)
      000A57 4F               [ 4] 2146 	ld	c, a
      000A58 13               [ 8] 2147 	inc	de
      000A59 1A               [ 8] 2148 	ld	a, (de)
      000A5A 47               [ 4] 2149 	ld	b, a
      000A5B 03               [ 8] 2150 	inc	bc
      000A5C 03               [ 8] 2151 	inc	bc
      000A5D 03               [ 8] 2152 	inc	bc
      000A5E 03               [ 8] 2153 	inc	bc
      000A5F 21r02r00         [12] 2154 	ld	hl, #(_photon + 2)
      000A62 79               [ 4] 2155 	ld	a, c
      000A63 22               [ 8] 2156 	ld	(hl+), a
      000A64 70               [ 8] 2157 	ld	(hl), b
                                   2158 ;..\modes\explorationmode.c:252: show(&photonGraphic);
      000A65 11r30r00         [12] 2159 	ld	de, #_photonGraphic
      000A68 CDr00r00         [24] 2160 	call	_show
                                   2161 ;..\modes\explorationmode.c:253: photon.isAlive = true;
      000A6B 21r04r00         [12] 2162 	ld	hl, #(_photon + 4)
      000A6E 36 01            [12] 2163 	ld	(hl), #0x01
                                   2164 ;..\modes\explorationmode.c:254: photon.vector.x = ship->vector.x * 2;
      000A70 F8 06            [12] 2165 	ldhl	sp,#6
      000A72 2A               [ 8] 2166 	ld	a, (hl+)
      000A73 5F               [ 4] 2167 	ld	e, a
      000A74 56               [ 8] 2168 	ld	d, (hl)
      000A75 1A               [ 8] 2169 	ld	a, (de)
      000A76 6F               [ 4] 2170 	ld	l, a
                                   2171 ;	spillPairReg hl
                                   2172 ;	spillPairReg hl
      000A77 13               [ 8] 2173 	inc	de
      000A78 1A               [ 8] 2174 	ld	a, (de)
      000A79 67               [ 4] 2175 	ld	h, a
                                   2176 ;	spillPairReg hl
                                   2177 ;	spillPairReg hl
      000A7A 29               [ 8] 2178 	add	hl, hl
      000A7B 4D               [ 4] 2179 	ld	c, l
      000A7C 44               [ 4] 2180 	ld	b, h
      000A7D 21r05r00         [12] 2181 	ld	hl, #(_photon + 5)
      000A80 79               [ 4] 2182 	ld	a, c
      000A81 22               [ 8] 2183 	ld	(hl+), a
      000A82 70               [ 8] 2184 	ld	(hl), b
                                   2185 ;..\modes\explorationmode.c:255: photon.vector.y = ship->vector.y * 2;
      000A83 F8 08            [12] 2186 	ldhl	sp,#8
      000A85 2A               [ 8] 2187 	ld	a, (hl+)
      000A86 5F               [ 4] 2188 	ld	e, a
      000A87 56               [ 8] 2189 	ld	d, (hl)
      000A88 1A               [ 8] 2190 	ld	a, (de)
      000A89 6F               [ 4] 2191 	ld	l, a
                                   2192 ;	spillPairReg hl
                                   2193 ;	spillPairReg hl
      000A8A 13               [ 8] 2194 	inc	de
      000A8B 1A               [ 8] 2195 	ld	a, (de)
      000A8C 67               [ 4] 2196 	ld	h, a
                                   2197 ;	spillPairReg hl
                                   2198 ;	spillPairReg hl
      000A8D 29               [ 8] 2199 	add	hl, hl
      000A8E 4D               [ 4] 2200 	ld	c, l
      000A8F 44               [ 4] 2201 	ld	b, h
      000A90 21r07r00         [12] 2202 	ld	hl, #(_photon + 7)
      000A93 79               [ 4] 2203 	ld	a, c
      000A94 22               [ 8] 2204 	ld	(hl+), a
      000A95 70               [ 8] 2205 	ld	(hl), b
      000A96                       2206 00114$:
                                   2207 ;..\modes\explorationmode.c:258: if(x == 0 & y < 0)setFrame(&shipGraphic, 0);
      000A96 F8 10            [12] 2208 	ldhl	sp,	#16
      000A98 2A               [ 8] 2209 	ld	a, (hl+)
      000A99 B7               [ 4] 2210 	or	a, a
      000A9A B6               [ 8] 2211 	or	a, (hl)
      000A9B 3E 01            [ 8] 2212 	ld	a, #0x01
      000A9D 28 01            [12] 2213 	jr	Z, 00265$
      000A9F AF               [ 4] 2214 	xor	a, a
      000AA0                       2215 00265$:
      000AA0 F8 0E            [12] 2216 	ldhl	sp,	#14
      000AA2 77               [ 8] 2217 	ld	(hl), a
      000AA3 F8 13            [12] 2218 	ldhl	sp,	#19
      000AA5 7E               [ 8] 2219 	ld	a, (hl)
      000AA6 07               [ 4] 2220 	rlca
      000AA7 E6 01            [ 8] 2221 	and	a,#0x01
      000AA9 F8 0A            [12] 2222 	ldhl	sp,	#10
      000AAB 77               [ 8] 2223 	ld	(hl), a
      000AAC F8 0E            [12] 2224 	ldhl	sp,	#14
      000AAE 7E               [ 8] 2225 	ld	a, (hl)
      000AAF F8 0A            [12] 2226 	ldhl	sp,	#10
      000AB1 A6               [ 8] 2227 	and	a,(hl)
      000AB2 28 09            [12] 2228 	jr	Z, 00116$
      000AB4 01 00 00         [12] 2229 	ld	bc, #0x0000
      000AB7 11r45r00         [12] 2230 	ld	de, #_shipGraphic
      000ABA CDr00r00         [24] 2231 	call	_setFrame
      000ABD                       2232 00116$:
                                   2233 ;..\modes\explorationmode.c:259: if(x > 0 & y == 0)setFrame(&shipGraphic, 1);
      000ABD F8 10            [12] 2234 	ldhl	sp,	#16
      000ABF AF               [ 4] 2235 	xor	a, a
      000AC0 96               [ 8] 2236 	sub	a, (hl)
      000AC1 23               [ 8] 2237 	inc	hl
      000AC2 3E 00            [ 8] 2238 	ld	a, #0x00
      000AC4 9E               [ 8] 2239 	sbc	a, (hl)
      000AC5 3E 00            [ 8] 2240 	ld	a, #0x00
      000AC7 57               [ 4] 2241 	ld	d, a
      000AC8 CB 7E            [12] 2242 	bit	7, (hl)
      000ACA 28 07            [12] 2243 	jr	Z, 00266$
      000ACC CB 7A            [ 8] 2244 	bit	7, d
      000ACE 20 08            [12] 2245 	jr	NZ, 00267$
      000AD0 BF               [ 4] 2246 	cp	a, a
      000AD1 18 05            [12] 2247 	jr	00267$
      000AD3                       2248 00266$:
      000AD3 CB 7A            [ 8] 2249 	bit	7, d
      000AD5 28 01            [12] 2250 	jr	Z, 00267$
      000AD7 37               [ 4] 2251 	scf
      000AD8                       2252 00267$:
      000AD8 3E 00            [ 8] 2253 	ld	a, #0x00
      000ADA 17               [ 4] 2254 	rla
      000ADB F8 0B            [12] 2255 	ldhl	sp,	#11
      000ADD 77               [ 8] 2256 	ld	(hl), a
      000ADE F8 12            [12] 2257 	ldhl	sp,	#18
      000AE0 2A               [ 8] 2258 	ld	a, (hl+)
      000AE1 B7               [ 4] 2259 	or	a, a
      000AE2 B6               [ 8] 2260 	or	a, (hl)
      000AE3 3E 01            [ 8] 2261 	ld	a, #0x01
      000AE5 28 01            [12] 2262 	jr	Z, 00269$
      000AE7 AF               [ 4] 2263 	xor	a, a
      000AE8                       2264 00269$:
      000AE8 F8 0C            [12] 2265 	ldhl	sp,	#12
      000AEA 32               [ 8] 2266 	ld	(hl-), a
      000AEB 2A               [ 8] 2267 	ld	a, (hl+)
      000AEC A6               [ 8] 2268 	and	a,(hl)
      000AED 28 09            [12] 2269 	jr	Z, 00118$
      000AEF 01 01 00         [12] 2270 	ld	bc, #0x0001
      000AF2 11r45r00         [12] 2271 	ld	de, #_shipGraphic
      000AF5 CDr00r00         [24] 2272 	call	_setFrame
      000AF8                       2273 00118$:
                                   2274 ;..\modes\explorationmode.c:260: if(x == 0 & y > 0)setFrame(&shipGraphic, 2);
      000AF8 F8 12            [12] 2275 	ldhl	sp,	#18
      000AFA AF               [ 4] 2276 	xor	a, a
      000AFB 96               [ 8] 2277 	sub	a, (hl)
      000AFC 23               [ 8] 2278 	inc	hl
      000AFD 3E 00            [ 8] 2279 	ld	a, #0x00
      000AFF 9E               [ 8] 2280 	sbc	a, (hl)
      000B00 3E 00            [ 8] 2281 	ld	a, #0x00
      000B02 57               [ 4] 2282 	ld	d, a
      000B03 CB 7E            [12] 2283 	bit	7, (hl)
      000B05 28 07            [12] 2284 	jr	Z, 00270$
      000B07 CB 7A            [ 8] 2285 	bit	7, d
      000B09 20 08            [12] 2286 	jr	NZ, 00271$
      000B0B BF               [ 4] 2287 	cp	a, a
      000B0C 18 05            [12] 2288 	jr	00271$
      000B0E                       2289 00270$:
      000B0E CB 7A            [ 8] 2290 	bit	7, d
      000B10 28 01            [12] 2291 	jr	Z, 00271$
      000B12 37               [ 4] 2292 	scf
      000B13                       2293 00271$:
      000B13 3E 00            [ 8] 2294 	ld	a, #0x00
      000B15 17               [ 4] 2295 	rla
      000B16 F8 0D            [12] 2296 	ldhl	sp,	#13
      000B18 22               [ 8] 2297 	ld	(hl+), a
      000B19 3A               [ 8] 2298 	ld	a, (hl-)
      000B1A A6               [ 8] 2299 	and	a,(hl)
      000B1B 28 09            [12] 2300 	jr	Z, 00120$
      000B1D 01 02 00         [12] 2301 	ld	bc, #0x0002
      000B20 11r45r00         [12] 2302 	ld	de, #_shipGraphic
      000B23 CDr00r00         [24] 2303 	call	_setFrame
      000B26                       2304 00120$:
                                   2305 ;..\modes\explorationmode.c:261: if(x < 0 & y == 0)setFrame(&shipGraphic, 3);
      000B26 F8 11            [12] 2306 	ldhl	sp,	#17
      000B28 7E               [ 8] 2307 	ld	a, (hl)
      000B29 07               [ 4] 2308 	rlca
      000B2A E6 01            [ 8] 2309 	and	a,#0x01
      000B2C F8 0E            [12] 2310 	ldhl	sp,	#14
      000B2E 77               [ 8] 2311 	ld	(hl), a
      000B2F 3A               [ 8] 2312 	ld	a, (hl-)
      000B30 2B               [ 8] 2313 	dec	hl
      000B31 A6               [ 8] 2314 	and	a,(hl)
      000B32 28 09            [12] 2315 	jr	Z, 00122$
      000B34 01 03 00         [12] 2316 	ld	bc, #0x0003
      000B37 11r45r00         [12] 2317 	ld	de, #_shipGraphic
      000B3A CDr00r00         [24] 2318 	call	_setFrame
      000B3D                       2319 00122$:
                                   2320 ;..\modes\explorationmode.c:262: if(x < 0 & y < 0)setFrame(&shipGraphic, 4);
      000B3D F8 0E            [12] 2321 	ldhl	sp,	#14
      000B3F 7E               [ 8] 2322 	ld	a, (hl)
      000B40 F8 0A            [12] 2323 	ldhl	sp,	#10
      000B42 A6               [ 8] 2324 	and	a,(hl)
      000B43 28 09            [12] 2325 	jr	Z, 00124$
      000B45 01 04 00         [12] 2326 	ld	bc, #0x0004
      000B48 11r45r00         [12] 2327 	ld	de, #_shipGraphic
      000B4B CDr00r00         [24] 2328 	call	_setFrame
      000B4E                       2329 00124$:
                                   2330 ;..\modes\explorationmode.c:263: if(x > 0 & y < 0)setFrame(&shipGraphic, 5);
      000B4E F8 0B            [12] 2331 	ldhl	sp,	#11
      000B50 3A               [ 8] 2332 	ld	a, (hl-)
      000B51 A6               [ 8] 2333 	and	a,(hl)
      000B52 28 09            [12] 2334 	jr	Z, 00126$
      000B54 01 05 00         [12] 2335 	ld	bc, #0x0005
      000B57 11r45r00         [12] 2336 	ld	de, #_shipGraphic
      000B5A CDr00r00         [24] 2337 	call	_setFrame
      000B5D                       2338 00126$:
                                   2339 ;..\modes\explorationmode.c:264: if(x > 0 & y > 0)setFrame(&shipGraphic, 6);
      000B5D F8 0B            [12] 2340 	ldhl	sp,	#11
      000B5F 2A               [ 8] 2341 	ld	a, (hl+)
      000B60 23               [ 8] 2342 	inc	hl
      000B61 A6               [ 8] 2343 	and	a,(hl)
      000B62 28 09            [12] 2344 	jr	Z, 00128$
      000B64 01 06 00         [12] 2345 	ld	bc, #0x0006
      000B67 11r45r00         [12] 2346 	ld	de, #_shipGraphic
      000B6A CDr00r00         [24] 2347 	call	_setFrame
      000B6D                       2348 00128$:
                                   2349 ;..\modes\explorationmode.c:265: if(x < 0 & y > 0)setFrame(&shipGraphic, 7);
      000B6D F8 0E            [12] 2350 	ldhl	sp,	#14
      000B6F 3A               [ 8] 2351 	ld	a, (hl-)
      000B70 A6               [ 8] 2352 	and	a,(hl)
      000B71 28 09            [12] 2353 	jr	Z, 00130$
      000B73 01 07 00         [12] 2354 	ld	bc, #0x0007
      000B76 11r45r00         [12] 2355 	ld	de, #_shipGraphic
      000B79 CDr00r00         [24] 2356 	call	_setFrame
      000B7C                       2357 00130$:
                                   2358 ;..\modes\explorationmode.c:267: ship->world.x += x;
      000B7C D1               [12] 2359 	pop	de
      000B7D D5               [16] 2360 	push	de
      000B7E 1A               [ 8] 2361 	ld	a, (de)
      000B7F 4F               [ 4] 2362 	ld	c, a
      000B80 13               [ 8] 2363 	inc	de
      000B81 1A               [ 8] 2364 	ld	a, (de)
      000B82 47               [ 4] 2365 	ld	b, a
      000B83 F8 10            [12] 2366 	ldhl	sp,	#16
      000B85 2A               [ 8] 2367 	ld	a,	(hl+)
      000B86 66               [ 8] 2368 	ld	h, (hl)
      000B87 6F               [ 4] 2369 	ld	l, a
      000B88 09               [ 8] 2370 	add	hl, bc
      000B89 4D               [ 4] 2371 	ld	c, l
      000B8A 44               [ 4] 2372 	ld	b, h
      000B8B E1               [12] 2373 	pop	hl
      000B8C E5               [16] 2374 	push	hl
      000B8D 79               [ 4] 2375 	ld	a, c
      000B8E 22               [ 8] 2376 	ld	(hl+), a
      000B8F 70               [ 8] 2377 	ld	(hl), b
                                   2378 ;..\modes\explorationmode.c:268: ship->world.y += y;
      000B90 F8 04            [12] 2379 	ldhl	sp,#4
      000B92 2A               [ 8] 2380 	ld	a, (hl+)
      000B93 5F               [ 4] 2381 	ld	e, a
      000B94 56               [ 8] 2382 	ld	d, (hl)
      000B95 1A               [ 8] 2383 	ld	a, (de)
      000B96 4F               [ 4] 2384 	ld	c, a
      000B97 13               [ 8] 2385 	inc	de
      000B98 1A               [ 8] 2386 	ld	a, (de)
      000B99 47               [ 4] 2387 	ld	b, a
      000B9A F8 12            [12] 2388 	ldhl	sp,	#18
      000B9C 2A               [ 8] 2389 	ld	a,	(hl+)
      000B9D 66               [ 8] 2390 	ld	h, (hl)
      000B9E 6F               [ 4] 2391 	ld	l, a
      000B9F 09               [ 8] 2392 	add	hl, bc
      000BA0 4D               [ 4] 2393 	ld	c, l
      000BA1 44               [ 4] 2394 	ld	b, h
      000BA2 F8 04            [12] 2395 	ldhl	sp,	#4
      000BA4 2A               [ 8] 2396 	ld	a,	(hl+)
      000BA5 66               [ 8] 2397 	ld	h, (hl)
      000BA6 6F               [ 4] 2398 	ld	l, a
      000BA7 79               [ 4] 2399 	ld	a, c
      000BA8 22               [ 8] 2400 	ld	(hl+), a
      000BA9 70               [ 8] 2401 	ld	(hl), b
                                   2402 ;..\modes\explorationmode.c:269: if(x != 0 || y != 0) { //if we pushed something store it as the new vector.
      000BAA F8 11            [12] 2403 	ldhl	sp,	#17
      000BAC 3A               [ 8] 2404 	ld	a, (hl-)
      000BAD B6               [ 8] 2405 	or	a, (hl)
      000BAE 20 06            [12] 2406 	jr	NZ, 00131$
      000BB0 F8 13            [12] 2407 	ldhl	sp,	#19
      000BB2 3A               [ 8] 2408 	ld	a, (hl-)
      000BB3 B6               [ 8] 2409 	or	a, (hl)
      000BB4 28 18            [12] 2410 	jr	Z, 00132$
      000BB6                       2411 00131$:
                                   2412 ;..\modes\explorationmode.c:270: ship->vector.x = x;
      000BB6 F8 06            [12] 2413 	ldhl	sp,#6
      000BB8 2A               [ 8] 2414 	ld	a, (hl+)
      000BB9 5F               [ 4] 2415 	ld	e, a
      000BBA 56               [ 8] 2416 	ld	d, (hl)
      000BBB F8 10            [12] 2417 	ldhl	sp,	#16
      000BBD 2A               [ 8] 2418 	ld	a, (hl+)
      000BBE 12               [ 8] 2419 	ld	(de), a
      000BBF 13               [ 8] 2420 	inc	de
      000BC0 7E               [ 8] 2421 	ld	a, (hl)
      000BC1 12               [ 8] 2422 	ld	(de), a
                                   2423 ;..\modes\explorationmode.c:271: ship->vector.y = y;
      000BC2 F8 08            [12] 2424 	ldhl	sp,#8
      000BC4 2A               [ 8] 2425 	ld	a, (hl+)
      000BC5 5F               [ 4] 2426 	ld	e, a
      000BC6 56               [ 8] 2427 	ld	d, (hl)
      000BC7 F8 12            [12] 2428 	ldhl	sp,	#18
      000BC9 2A               [ 8] 2429 	ld	a, (hl+)
      000BCA 12               [ 8] 2430 	ld	(de), a
      000BCB 13               [ 8] 2431 	inc	de
      000BCC 7E               [ 8] 2432 	ld	a, (hl)
      000BCD 12               [ 8] 2433 	ld	(de), a
      000BCE                       2434 00132$:
                                   2435 ;..\modes\explorationmode.c:274: int screen_x = planet1->world.x - ship->world.x + mid_screen.width;
      000BCE F8 02            [12] 2436 	ldhl	sp,#2
      000BD0 2A               [ 8] 2437 	ld	a, (hl+)
      000BD1 5F               [ 4] 2438 	ld	e, a
      000BD2 56               [ 8] 2439 	ld	d, (hl)
      000BD3 1A               [ 8] 2440 	ld	a, (de)
      000BD4 4F               [ 4] 2441 	ld	c, a
      000BD5 13               [ 8] 2442 	inc	de
      000BD6 1A               [ 8] 2443 	ld	a, (de)
      000BD7 47               [ 4] 2444 	ld	b, a
      000BD8 D1               [12] 2445 	pop	de
      000BD9 D5               [16] 2446 	push	de
      000BDA 1A               [ 8] 2447 	ld	a, (de)
      000BDB 6F               [ 4] 2448 	ld	l, a
                                   2449 ;	spillPairReg hl
                                   2450 ;	spillPairReg hl
      000BDC 13               [ 8] 2451 	inc	de
      000BDD 1A               [ 8] 2452 	ld	a, (de)
      000BDE 67               [ 4] 2453 	ld	h, a
                                   2454 ;	spillPairReg hl
                                   2455 ;	spillPairReg hl
      000BDF 79               [ 4] 2456 	ld	a, c
      000BE0 95               [ 4] 2457 	sub	a, l
      000BE1 4F               [ 4] 2458 	ld	c, a
      000BE2 78               [ 4] 2459 	ld	a, b
      000BE3 9C               [ 4] 2460 	sbc	a, h
      000BE4 47               [ 4] 2461 	ld	b, a
      000BE5 11r00r00         [12] 2462 	ld	de, #_mid_screen
      000BE8 1A               [ 8] 2463 	ld	a, (de)
      000BE9 F8 0B            [12] 2464 	ldhl	sp,	#11
      000BEB 22               [ 8] 2465 	ld	(hl+), a
      000BEC 13               [ 8] 2466 	inc	de
      000BED 1A               [ 8] 2467 	ld	a, (de)
      000BEE 32               [ 8] 2468 	ld	(hl-), a
      000BEF 2A               [ 8] 2469 	ld	a,	(hl+)
      000BF0 66               [ 8] 2470 	ld	h, (hl)
      000BF1 6F               [ 4] 2471 	ld	l, a
      000BF2 09               [ 8] 2472 	add	hl, bc
      000BF3 E5               [16] 2473 	push	hl
      000BF4 7D               [ 4] 2474 	ld	a, l
      000BF5 F8 0F            [12] 2475 	ldhl	sp,	#15
      000BF7 77               [ 8] 2476 	ld	(hl), a
      000BF8 E1               [12] 2477 	pop	hl
      000BF9 7C               [ 4] 2478 	ld	a, h
      000BFA F8 0E            [12] 2479 	ldhl	sp,	#14
      000BFC 77               [ 8] 2480 	ld	(hl), a
                                   2481 ;..\modes\explorationmode.c:275: int screen_y = planet1->world.y - ship->world.y + mid_screen.height;
      000BFD F8 02            [12] 2482 	ldhl	sp,	#2
      000BFF 2A               [ 8] 2483 	ld	a, (hl+)
      000C00 66               [ 8] 2484 	ld	h, (hl)
                                   2485 ;	spillPairReg hl
                                   2486 ;	spillPairReg hl
      000C01 6F               [ 4] 2487 	ld	l, a
                                   2488 ;	spillPairReg hl
                                   2489 ;	spillPairReg hl
      000C02 23               [ 8] 2490 	inc	hl
      000C03 23               [ 8] 2491 	inc	hl
      000C04 2A               [ 8] 2492 	ld	a, (hl+)
      000C05 4F               [ 4] 2493 	ld	c, a
      000C06 46               [ 8] 2494 	ld	b, (hl)
      000C07 F8 04            [12] 2495 	ldhl	sp,#4
      000C09 2A               [ 8] 2496 	ld	a, (hl+)
      000C0A 5F               [ 4] 2497 	ld	e, a
      000C0B 56               [ 8] 2498 	ld	d, (hl)
      000C0C 1A               [ 8] 2499 	ld	a, (de)
      000C0D 6F               [ 4] 2500 	ld	l, a
                                   2501 ;	spillPairReg hl
                                   2502 ;	spillPairReg hl
      000C0E 13               [ 8] 2503 	inc	de
      000C0F 1A               [ 8] 2504 	ld	a, (de)
      000C10 67               [ 4] 2505 	ld	h, a
                                   2506 ;	spillPairReg hl
                                   2507 ;	spillPairReg hl
      000C11 79               [ 4] 2508 	ld	a, c
      000C12 95               [ 4] 2509 	sub	a, l
      000C13 4F               [ 4] 2510 	ld	c, a
      000C14 78               [ 4] 2511 	ld	a, b
      000C15 9C               [ 4] 2512 	sbc	a, h
      000C16 47               [ 4] 2513 	ld	b, a
      000C17 21r02r00         [12] 2514 	ld	hl, #(_mid_screen + 2)
      000C1A 2A               [ 8] 2515 	ld	a,	(hl+)
      000C1B 66               [ 8] 2516 	ld	h, (hl)
                                   2517 ;	spillPairReg hl
      000C1C 6F               [ 4] 2518 	ld	l, a
                                   2519 ;	spillPairReg hl
                                   2520 ;	spillPairReg hl
      000C1D 09               [ 8] 2521 	add	hl, bc
                                   2522 ;..\modes\explorationmode.c:276: move(&saturnGraphic, screen_x, screen_y);
      000C1E E5               [16] 2523 	push	hl
      000C1F F8 0F            [12] 2524 	ldhl	sp,	#15
      000C21 2A               [ 8] 2525 	ld	a, (hl+)
      000C22 4F               [ 4] 2526 	ld	c, a
      000C23 46               [ 8] 2527 	ld	b, (hl)
      000C24 11r12r00         [12] 2528 	ld	de, #_saturnGraphic
      000C27 CDr00r00         [24] 2529 	call	_move
                                   2530 ;..\modes\explorationmode.c:278: screen_x = photon.world.x - ship->world.x + mid_screen.width;
      000C2A 21r00r00         [12] 2531 	ld	hl, #_photon
      000C2D 2A               [ 8] 2532 	ld	a, (hl+)
      000C2E 4F               [ 4] 2533 	ld	c, a
      000C2F 46               [ 8] 2534 	ld	b, (hl)
      000C30 D1               [12] 2535 	pop	de
      000C31 D5               [16] 2536 	push	de
      000C32 1A               [ 8] 2537 	ld	a, (de)
      000C33 6F               [ 4] 2538 	ld	l, a
                                   2539 ;	spillPairReg hl
                                   2540 ;	spillPairReg hl
      000C34 13               [ 8] 2541 	inc	de
      000C35 1A               [ 8] 2542 	ld	a, (de)
      000C36 67               [ 4] 2543 	ld	h, a
                                   2544 ;	spillPairReg hl
                                   2545 ;	spillPairReg hl
      000C37 79               [ 4] 2546 	ld	a, c
      000C38 95               [ 4] 2547 	sub	a, l
      000C39 4F               [ 4] 2548 	ld	c, a
      000C3A 78               [ 4] 2549 	ld	a, b
      000C3B 9C               [ 4] 2550 	sbc	a, h
      000C3C 47               [ 4] 2551 	ld	b, a
      000C3D 11r00r00         [12] 2552 	ld	de, #_mid_screen
      000C40 1A               [ 8] 2553 	ld	a, (de)
      000C41 F8 0B            [12] 2554 	ldhl	sp,	#11
      000C43 22               [ 8] 2555 	ld	(hl+), a
      000C44 13               [ 8] 2556 	inc	de
      000C45 1A               [ 8] 2557 	ld	a, (de)
      000C46 32               [ 8] 2558 	ld	(hl-), a
      000C47 2A               [ 8] 2559 	ld	a,	(hl+)
      000C48 66               [ 8] 2560 	ld	h, (hl)
      000C49 6F               [ 4] 2561 	ld	l, a
      000C4A 09               [ 8] 2562 	add	hl, bc
      000C4B E5               [16] 2563 	push	hl
      000C4C 7D               [ 4] 2564 	ld	a, l
      000C4D F8 0F            [12] 2565 	ldhl	sp,	#15
      000C4F 77               [ 8] 2566 	ld	(hl), a
      000C50 E1               [12] 2567 	pop	hl
      000C51 7C               [ 4] 2568 	ld	a, h
      000C52 F8 0E            [12] 2569 	ldhl	sp,	#14
      000C54 77               [ 8] 2570 	ld	(hl), a
                                   2571 ;..\modes\explorationmode.c:279: screen_y = photon.world.y - ship->world.y + mid_screen.height;
      000C55 21r02r00         [12] 2572 	ld	hl, #(_photon + 2)
      000C58 2A               [ 8] 2573 	ld	a, (hl+)
      000C59 4F               [ 4] 2574 	ld	c, a
      000C5A 46               [ 8] 2575 	ld	b, (hl)
      000C5B F8 04            [12] 2576 	ldhl	sp,#4
      000C5D 2A               [ 8] 2577 	ld	a, (hl+)
      000C5E 5F               [ 4] 2578 	ld	e, a
      000C5F 56               [ 8] 2579 	ld	d, (hl)
      000C60 1A               [ 8] 2580 	ld	a, (de)
      000C61 6F               [ 4] 2581 	ld	l, a
                                   2582 ;	spillPairReg hl
                                   2583 ;	spillPairReg hl
      000C62 13               [ 8] 2584 	inc	de
      000C63 1A               [ 8] 2585 	ld	a, (de)
      000C64 67               [ 4] 2586 	ld	h, a
                                   2587 ;	spillPairReg hl
                                   2588 ;	spillPairReg hl
      000C65 79               [ 4] 2589 	ld	a, c
      000C66 95               [ 4] 2590 	sub	a, l
      000C67 4F               [ 4] 2591 	ld	c, a
      000C68 78               [ 4] 2592 	ld	a, b
      000C69 9C               [ 4] 2593 	sbc	a, h
      000C6A 47               [ 4] 2594 	ld	b, a
      000C6B 11r02r00         [12] 2595 	ld	de, #(_mid_screen + 2)
      000C6E 1A               [ 8] 2596 	ld	a, (de)
      000C6F F8 09            [12] 2597 	ldhl	sp,	#9
      000C71 22               [ 8] 2598 	ld	(hl+), a
      000C72 13               [ 8] 2599 	inc	de
      000C73 1A               [ 8] 2600 	ld	a, (de)
      000C74 32               [ 8] 2601 	ld	(hl-), a
      000C75 2A               [ 8] 2602 	ld	a,	(hl+)
      000C76 66               [ 8] 2603 	ld	h, (hl)
      000C77 6F               [ 4] 2604 	ld	l, a
      000C78 09               [ 8] 2605 	add	hl, bc
      000C79 E5               [16] 2606 	push	hl
      000C7A 7D               [ 4] 2607 	ld	a, l
      000C7B F8 0D            [12] 2608 	ldhl	sp,	#13
      000C7D 77               [ 8] 2609 	ld	(hl), a
      000C7E E1               [12] 2610 	pop	hl
      000C7F 7C               [ 4] 2611 	ld	a, h
      000C80 F8 0C            [12] 2612 	ldhl	sp,	#12
                                   2613 ;..\modes\explorationmode.c:280: if(!isOnScreen(&photonGraphic, screen_x, screen_y)) {
      000C82 32               [ 8] 2614 	ld	(hl-), a
      000C83 5E               [ 8] 2615 	ld	e, (hl)
      000C84 23               [ 8] 2616 	inc	hl
      000C85 56               [ 8] 2617 	ld	d, (hl)
      000C86 23               [ 8] 2618 	inc	hl
      000C87 D5               [16] 2619 	push	de
      000C88 4E               [ 8] 2620 	ld	c, (hl)
      000C89 23               [ 8] 2621 	inc	hl
      000C8A 46               [ 8] 2622 	ld	b, (hl)
      000C8B 11r30r00         [12] 2623 	ld	de, #_photonGraphic
      000C8E CDr00r00         [24] 2624 	call	_isOnScreen
      000C91 B7               [ 4] 2625 	or	a, a
      000C92 20 0D            [12] 2626 	jr	NZ, 00135$
                                   2627 ;..\modes\explorationmode.c:281: photon.isAlive = false;
      000C94 21r04r00         [12] 2628 	ld	hl, #(_photon + 4)
      000C97 36 00            [12] 2629 	ld	(hl), #0x00
                                   2630 ;..\modes\explorationmode.c:282: hide(&photonGraphic);
      000C99 11r30r00         [12] 2631 	ld	de, #_photonGraphic
      000C9C CDr00r00         [24] 2632 	call	_hide
      000C9F 18 10            [12] 2633 	jr	00136$
      000CA1                       2634 00135$:
                                   2635 ;..\modes\explorationmode.c:283: } else 	move(&photonGraphic, screen_x, screen_y);
      000CA1 F8 0B            [12] 2636 	ldhl	sp,	#11
      000CA3 2A               [ 8] 2637 	ld	a, (hl+)
      000CA4 5F               [ 4] 2638 	ld	e, a
      000CA5 2A               [ 8] 2639 	ld	a, (hl+)
      000CA6 57               [ 4] 2640 	ld	d, a
      000CA7 D5               [16] 2641 	push	de
      000CA8 2A               [ 8] 2642 	ld	a, (hl+)
      000CA9 4F               [ 4] 2643 	ld	c, a
      000CAA 46               [ 8] 2644 	ld	b, (hl)
      000CAB 11r30r00         [12] 2645 	ld	de, #_photonGraphic
      000CAE CDr00r00         [24] 2646 	call	_move
      000CB1                       2647 00136$:
                                   2648 ;..\modes\explorationmode.c:284: scroll_bkg(x, y);
      000CB1 F8 12            [12] 2649 	ldhl	sp,	#18
      000CB3 3A               [ 8] 2650 	ld	a, (hl-)
      000CB4 2B               [ 8] 2651 	dec	hl
      000CB5 4F               [ 4] 2652 	ld	c, a
      000CB6 46               [ 8] 2653 	ld	b, (hl)
                                   2654 ;c:\source\gameboy\gbdk-win64\gbdk\include\gb\gb.h:1392: SCX_REG+=x, SCY_REG+=y;
      000CB7 F0r00            [12] 2655 	ldh	a, (_SCX_REG + 0)
      000CB9 80               [ 4] 2656 	add	a, b
      000CBA E0r00            [12] 2657 	ldh	(_SCX_REG + 0), a
      000CBC F0r00            [12] 2658 	ldh	a, (_SCY_REG + 0)
      000CBE 81               [ 4] 2659 	add	a, c
      000CBF E0r00            [12] 2660 	ldh	(_SCY_REG + 0), a
                                   2661 ;..\modes\explorationmode.c:284: scroll_bkg(x, y);
      000CC1                       2662 00138$:
                                   2663 ;..\modes\explorationmode.c:285: }
      000CC1 E8 14            [16] 2664 	add	sp, #20
      000CC3 C9               [16] 2665 	ret
                                   2666 	.area _CODE
                                   2667 	.area _INITIALIZER
      000000                       2668 __xinit__mid_screen:
      000000 54 00                 2669 	.dw #0x0054
      000002 54 00                 2670 	.dw #0x0054
                                   2671 	.area _CABS (ABS)
